
D:/mylinux/diy-x86os-master-20230506/start/start/build/source/kernel/kernel.elf:     file format elf32-i386
D:/mylinux/diy-x86os-master-20230506/start/start/build/source/kernel/kernel.elf
architecture: i386, flags 0x00000112:
EXEC_P, HAS_SYMS, D_PAGED
start address 0x00010000

Program Header:
    LOAD off    0x00001000 vaddr 0x00010000 paddr 0x00010000 align 2**12
         filesz 0x0000a23d memsz 0x0000a23d flags r-x
    LOAD off    0x0000c000 vaddr 0x0001b000 paddr 0x0001b000 align 2**12
         filesz 0x00000178 memsz 0x00045204 flags rw-
    LOAD off    0x0000d000 vaddr 0x80000000 paddr 0x00060204 align 2**12
         filesz 0x000003e3 memsz 0x000003e3 flags rwx

Sections:
Idx Name          Size      VMA       LMA       File off  Algn
  0 .text         00009019  00010000  00010000  00001000  2**0
                  CONTENTS, ALLOC, LOAD, READONLY, CODE
  1 .rodata       0000121d  00019020  00019020  0000a020  2**5
                  CONTENTS, ALLOC, LOAD, READONLY, DATA
  2 .data         00000178  0001b000  0001b000  0000c000  2**5
                  CONTENTS, ALLOC, LOAD, DATA
  3 .bss          00044204  0001c000  0001c000  0000c178  2**12
                  ALLOC
  4 .first_task   000003e3  80000000  00060204  0000d000  2**0
                  CONTENTS, ALLOC, LOAD, CODE
  5 .debug_line   000063ee  00000000  00000000  0000d3e3  2**0
                  CONTENTS, READONLY, DEBUGGING
  6 .debug_info   0001616a  00000000  00000000  000137d1  2**0
                  CONTENTS, READONLY, DEBUGGING
  7 .debug_abbrev 0000376a  00000000  00000000  0002993b  2**0
                  CONTENTS, READONLY, DEBUGGING
  8 .debug_aranges 00000340  00000000  00000000  0002d0a8  2**3
                  CONTENTS, READONLY, DEBUGGING
  9 .debug_ranges 000000a8  00000000  00000000  0002d3e8  2**0
                  CONTENTS, READONLY, DEBUGGING
 10 .debug_str    00002d3c  00000000  00000000  0002d490  2**0
                  CONTENTS, READONLY, DEBUGGING
 11 .comment      00000011  00000000  00000000  000301cc  2**0
                  CONTENTS, READONLY
 12 .debug_frame  00002e28  00000000  00000000  000301e0  2**2
                  CONTENTS, READONLY, DEBUGGING
SYMBOL TABLE:
00010000 l    d  .text	00000000 .text
00019020 l    d  .rodata	00000000 .rodata
0001b000 l    d  .data	00000000 .data
0001c000 l    d  .bss	00000000 .bss
80000000 l    d  .first_task	00000000 .first_task
00000000 l    d  .debug_line	00000000 .debug_line
00000000 l    d  .debug_info	00000000 .debug_info
00000000 l    d  .debug_abbrev	00000000 .debug_abbrev
00000000 l    d  .debug_aranges	00000000 .debug_aranges
00000000 l    d  .debug_ranges	00000000 .debug_ranges
00000000 l    d  .debug_str	00000000 .debug_str
00000000 l    d  .comment	00000000 .comment
00000000 l    d  .debug_frame	00000000 .debug_frame
00000000 l    df *ABS*	00000000 CMakeFiles/kernel.dir/init/start.S.obj
00010010 l       .text	00000000 gdt_reload
00000000 l    df *ABS*	00000000 memory.c
000102f4 l     F .text	0000000c write_cr3
00010300 l     F .text	00000017 up2
00010317 l     F .text	0000000d down2
00010324 l     F .text	00000011 mmu_set_page_dir
00010335 l     F .text	0000000b pde_index
00010340 l     F .text	00000010 pte_index
00010350 l     F .text	00000027 pde_paddr
00010377 l     F .text	00000027 pte_paddr
0001039e l     F .text	0000000f get_pte_perm
0001c000 l     O .bss	00000028 paddr_alloc
0001d000 l     O .bss	00001000 kernel_page_dir
000103ad l     F .text	00000058 addr_alloc_init
00010405 l     F .text	00000067 addr_alloc_page
0001046c l     F .text	0000005e addr_free_page
000104ca l     F .text	00000066 show_mem_info
00010530 l     F .text	0000003c total_mem_size
00019164 l     O .rodata	00000012 __func__.2518
0001b000 l     O .data	00000050 kernel_map.2528
00019178 l     O .rodata	0000000c __func__.2547
00019184 l     O .rodata	00000011 __func__.2583
00019198 l     O .rodata	00000009 __func__.2647
00000000 l    df *ABS*	00000000 syscall.c
00010e72 l     F .text	0000001d inb
00010e8f l     F .text	0000001f inw
00010eae l     F .text	0000001f outb
00010ecd l     F .text	0000012f read_disk
000191c0 l     O .rodata	00000194 syscall_table
00000000 l    df *ABS*	00000000 task.c
0001107c l     F .text	0000001d inb
00011099 l     F .text	0000001f inw
000110b8 l     F .text	0000001f outb
000110d7 l     F .text	0000000c write_cr3
000110e3 l     F .text	0000001a far_jump
000110fd l     F .text	00000007 hlt
00011104 l     F .text	00000017 ltr
0001111b l     F .text	0000001b list_node_init
00011136 l     F .text	0000000b list_count
00011141 l     F .text	0000000a list_first
0001114b l     F .text	00000011 mmu_set_page_dir
0001115c l     F .text	0000012f read_disk
0001e000 l     O .bss	00001000 idle_stack
0001f000 l     O .bss	00000014 task_table_mutex
0001f020 l     O .bss	00016400 task_table
00011333 l     F .text	000001b6 tss_init
000194c8 l     O .rodata	00000010 __func__.3190
0001210c l     F .text	0000006c alloc_task
00012178 l     F .text	00000033 free_task
000121ab l     F .text	000001e3 load_elf_file
000194d8 l     O .rodata	0000000d __func__.3289
00000000 l    df *ABS*	00000000 cpu.c
000126e9 l     F .text	00000028 lgdt
00035420 l     O .bss	00000800 gdt_table
00035c20 l     O .bss	00000014 mutex
00000000 l    df *ABS*	00000000 irq.c
0001292e l     F .text	0000001d inb
0001294b l     F .text	0000001f inw
0001296a l     F .text	0000001f outb
00012989 l     F .text	00000007 cli
00012990 l     F .text	00000007 sti
00012997 l     F .text	00000028 lidt
000129bf l     F .text	00000011 read_cr2
000129d0 l     F .text	00000007 hlt
000129d7 l     F .text	00000010 read_eflags
000129e7 l     F .text	0000000b write_eflags
000129f2 l     F .text	0000012f read_disk
00035c40 l     O .bss	00000400 idt_table
00012b21 l     F .text	000000ff dump_core_regs
00012c20 l     F .text	00000071 do_default_handler
00013092 l     F .text	00000093 init_pic
00000000 l    df *ABS*	00000000 console.c
0001344f l     F .text	0000001d inb
0001346c l     F .text	0000001f outb
00036040 l     O .bss	00000340 console_buf
00036380 l     O .bss	00000004 curr_console_idx
0001348b l     F .text	00000074 read_cursor_pos
000134ff l     F .text	000000bf update_cursor_pos
00013f13 l     F .text	00000088 scroll_up
00013ac5 l     F .text	00000099 set_font_style
00019a80 l     O .rodata	00000020 color_table.2502
00013b5e l     F .text	00000049 move_right
00013ba7 l     F .text	00000037 move_left
00013bde l     F .text	0000001e move_cursor
00013bfc l     F .text	00000054 erase_in_display
00013eac l     F .text	00000067 erase_rows
00013c50 l     F .text	000000fa write_esc_square
00000000 l    df *ABS*	00000000 dev.c
0001b050 l     O .data	00000008 dev_desc_tbl
000363a0 l     O .bss	00000a00 dev_tbl
00013f9b l     F .text	0000003e is_devid_bad
00000000 l    df *ABS*	00000000 disk.c
0001428b l     F .text	0000001d inb
000142a8 l     F .text	0000001f inw
000142c7 l     F .text	0000001f outb
000142e6 l     F .text	00000021 outw
00036da0 l     O .bss	00000250 disk_buf
00036ff0 l     O .bss	00000014 mutex
00037004 l     O .bss	00000010 op_sem
00037014 l     O .bss	00000004 task_on_op
00014307 l     F .text	00000130 disk_send_cmd
00014437 l     F .text	00000050 disk_read_data
00014487 l     F .text	00000050 disk_write_data
000144d7 l     F .text	0000004b disk_wait_data
00014710 l     F .text	0000011d detect_part_info
00000000 l    df *ABS*	00000000 kbd.c
00014c3c l     F .text	0000001d inb
00019bc0 l     O .rodata	00000200 map_table
00014c88 l     F .text	0000003c do_fx_key
00014cc4 l     F .text	000001c2 do_normal_key
00037018 l     O .bss	00000004 recv_state.2396
0003701c l     O .bss	00000004 init.2414
00000000 l    df *ABS*	00000000 time.c
00015021 l     F .text	0000001f outb
00037020 l     O .bss	00000004 sys_tick
00015040 l     F .text	00000060 init_pit
00000000 l    df *ABS*	00000000 tty.c
00037040 l     O .bss	000022a0 tty_devs
000392e0 l     O .bss	00000004 curr_tty
00015314 l     F .text	0000004f get_tty
00000000 l    df *ABS*	00000000 devfs.c
00015671 l     F .text	0000001d inb
0001568e l     F .text	0000001f inw
000156ad l     F .text	0000001f outb
000156cc l     F .text	0000012f read_disk
0001b0e0 l     O .data	0000000c dev_type_table
00000000 l    df *ABS*	00000000 fatfs.c
000159c2 l     F .text	0000001d inb
000159df l     F .text	0000001f inw
000159fe l     F .text	0000001f outb
00015a1d l     F .text	0000012f read_disk
00015b4c l     F .text	00000017 up2
00000000 l    df *ABS*	00000000 file.c
00039300 l     O .bss	00024000 file_table
0005d300 l     O .bss	00000014 file_alloc_mutex
00000000 l    df *ABS*	00000000 fs.c
000171f3 l     F .text	0000001d inb
00017210 l     F .text	0000001f inw
0001722f l     F .text	0000001f outb
0001724e l     F .text	0000000b list_node_next
00017259 l     F .text	0000000a list_first
00017263 l     F .text	0000012f read_disk
0005d320 l     O .bss	0000000c mounted_list
0005d340 l     O .bss	000008c0 fs_table
0005dc00 l     O .bss	0000000c free_list
0005dc0c l     O .bss	00000004 root_fs
00017495 l     F .text	00000021 is_valid_path
00017cda l     F .text	0000001d is_file_bad
0001a0c8 l     O .rodata	0000000a __func__.3381
00017a41 l     F .text	00000074 mount_list_init
00000000 l    df *ABS*	00000000 init.c
00017f88 l     F .text	0000001d inb
00017fa5 l     F .text	0000001f inw
00017fc4 l     F .text	0000001f outb
00017fe3 l     F .text	0000012f read_disk
0001a1c0 l     O .rodata	0000000c __func__.3271
0005dc10 l     O .bss	00000010 sem
0001a1cc l     O .rodata	00000013 __func__.3277
00000000 l    df *ABS*	00000000 mutex.c
0001824b l     F .text	0000000b list_count
00000000 l    df *ABS*	00000000 sem.c
000183da l     F .text	0000000b list_count
00000000 l    df *ABS*	00000000 bitmap.c
00000000 l    df *ABS*	00000000 klib.c
0001876f l     F .text	00000007 hlt
0001b174 l     O .data	00000004 num2ch.1950
00000000 l    df *ABS*	00000000 list.c
00018d25 l     F .text	00000013 list_is_empty
00000000 l    df *ABS*	00000000 log.c
0005dc20 l     O .bss	00000014 mutex
0005dc34 l     O .bss	00000004 log_dev_id
00000000 l    df *ABS*	00000000 first_task.c
00000000 l    df *ABS*	00000000 lib_syscall.c
800000f0 l     F .first_task	0000004c sys_call
00018953 g     F .text	0000004f kernel_memcpy
00017835 g     F .text	000000ff sys_close
00017445 g     F .text	00000050 path_begin_with
800001c5 g     F .first_task	0000001c yield
00012ce7 g     F .text	0000001c do_handler_divider0
00013a50 g     F .text	00000075 write_esc
00013130 g     F .text	0000000b irq_enable_global
8000030a g     F .first_task	00000033 ioctl
000137dc g     F .text	0000003d erase_backword
00018dbc g     F .text	00000064 list_insert_last
0001128b g     F .text	00000030 task_file
0001027b g       .text	00000000 exception_handler_kbd
00010d66 g     F .text	0000010c sys_sbrk
00012dff g     F .text	0000001c do_handler_segment_not_present
00015bd0 g     F .text	0000012b cluster_alloc_free
00011c03 g     F .text	00000078 copy_open_files
0001869c g     F .text	0000001b bitmap_is_set
000189a2 g     F .text	00000041 kernel_memset
0001416f g     F .text	0000004c dev_write
000177ac g     F .text	00000089 sys_lseek
00014c59 g     F .text	0000001a is_makecode
00014fd2 g     F .text	0000004f kbd_init
00016e1c g     F .text	00000118 cluster_set_next
00010241 g       .text	00000000 exception_handler_virtual_exception
00014bfe g     F .text	00000006 disk_close
00010ffc g     F .text	00000080 do_handler_syscall
00012862 g     F .text	0000001e cpu_init
00018f1d g     F .text	0000002f log_init
00016d2b g     F .text	000000e7 fatfs_readdir
00011c7b g     F .text	00000188 sys_fork
000181d0 g     F .text	0000007b init_main
000101ec g       .text	00000000 exception_handler_alignment_check
00014bf4 g     F .text	0000000a disk_control
00015cfb g     F .text	00000175 expand_filesz
00011be9 g     F .text	0000001a sys_print_msg
0005fc40 g     O .bss	000005c0 task_manager
0001b140 g     O .data	00000034 fatfs_op
000187e7 g     F .text	00000047 kernel_strcpy
00014f48 g     F .text	0000008a do_e0_key
0001b000 g       .data	00000000 s_data
800001e1 g     F .first_task	0000002e execve
00010a39 g     F .text	00000010 curr_page_dir
80000166 g     F .first_task	0000001b getpid
0001313b g     F .text	0000008b irq_enable
00010028 g       .text	00000000 exception_handler_unknown
00013772 g     F .text	0000006a show_console
0001009c g       .text	00000000 exception_handler_breakpoint
000118dd g     F .text	00000034 set_ready
00012d57 g     F .text	0000001c do_handler_overflow
00013022 g     F .text	0000001c do_handler_alignment_check
0001061c g     F .text	0000009d memory_create_map
000176c8 g     F .text	00000088 sys_read
000173ed g     F .text	00000058 path_next_child
000167c7 g     F .text	0000021c fatfs_write
00013819 g     F .text	000000b7 console_select
00010199 g       .text	00000000 exception_handler_general_protection
00012e37 g     F .text	000000d8 do_handler_general_protection
000184f5 g     F .text	00000029 sem_count
80000010 g     F .first_task	000000bd first_task_main
00012dc7 g     F .text	0000001c do_handler_double_fault
00016e12 g     F .text	0000000a fatfs_closedir
00012f0f g     F .text	000000f7 do_handler_page_fault
000145e9 g     F .text	00000127 identify_disk
00015e70 g     F .text	00000242 fatfs_mount
8000033d g     F .first_task	00000021 isatty
00016624 g     F .text	000001a3 fatfs_read
0001012d g       .text	00000000 exception_handler_double_fault
000133fb g     F .text	0000002b pic_send_eoi
00011fdc g     F .text	00000130 cpy_to_stack
000150e0 g     F .text	00000037 fifo_init
8000013c g     F .first_task	0000002a sleep
000118d3 g     F .text	0000000a task_first_task
00010000 g       .text	00000000 s_text
00010828 g     F .text	00000088 memory_create_uvm
00018408 g     F .text	0000006b sem_wait
0001017e g       .text	00000000 exception_handler_stack_segment_fault
000116ed g     F .text	0000000a idle_task_func
000179a5 g     F .text	0000009c sys_fstat
00014123 g     F .text	0000004c dev_read
00016a6d g     F .text	000000df fatfs_seek
000169e3 g     F .text	0000008a fatfs_close
00013076 g     F .text	0000001c do_handler_virtual_exception
00015998 g     F .text	0000000a devfs_stat
000100b9 g       .text	00000000 exception_handler_overflow
000102b5 g       .text	00000000 simple_switch
00010298 g       .text	00000000 exception_handler_ide_primary
000160b2 g     F .text	0000003c fatfs_unmount
00017183 g     F .text	00000038 ref_inc
80000293 g     F .first_task	0000002e lseek
0001025e g       .text	00000000 exception_handler_time
00013948 g     F .text	000000a3 write_normal
0005dc40 g     O .bss	00002000 stack
00011b81 g     F .text	0000005b sys_sleep
0001482d g     F .text	000000f8 disk_init
00017c91 g     F .text	00000049 fs_init
000109a0 g     F .text	00000099 memory_free_page
00060204 g       *ABS*	00000000 s_first_task
0001130e g     F .text	00000025 task_remove_fd
000155e7 g     F .text	0000005b tty_control
00013619 g     F .text	000000e3 console_init
00015363 g     F .text	00000122 tty_read
00011640 g     F .text	0000008f task_uninit
000174e1 g     F .text	0000002b fs_unprotect
000108d5 g     F .text	000000b1 memory_alloc_for_page_dir
000159a2 g     F .text	00000020 devfs_ioctl
000151fd g     F .text	0000007f tty_fifo_get
000100d6 g       .text	00000000 exception_handler_bound_range
0001557a g     F .text	0000006d tty_in
000164a7 g     F .text	000000bb cluster_get_next
00018473 g     F .text	00000082 sem_notify
00010ce3 g     F .text	00000083 memory_copy_uvm_data
000141bb g     F .text	0000004c dev_control
00014e86 g     F .text	000000c2 do_handler_kbd
00013426 g     F .text	00000018 enter_protection
00012d8f g     F .text	0000001c do_handler_invalid_opcode
00010148 g       .text	00000000 exception_handler_invalid_tss
000150c8 g     F .text	00000018 timer_init
00017e95 g     F .text	00000053 sys_readdir
00013006 g     F .text	0000001c do_handler_fpu_error
0001303e g     F .text	0000001c do_handler_machine_check
80000265 g     F .first_task	0000002e write
000136fc g     F .text	00000076 move_forward
0001750c g     F .text	000001bc sys_open
000174b6 g     F .text	0000002b fs_protect
00012d03 g     F .text	0000001c do_handler_Debug
800002e3 g     F .first_task	00000027 fstat
000187a1 g     F .text	00000046 get_filename
00017934 g     F .text	00000071 sys_isatty
00018d5d g     F .text	0000005f list_insert_first
00013fd9 g     F .text	0000014a dev_open
80000181 g     F .first_task	00000028 mprint_msg
00017392 g     F .text	0000005b path_to_num
00015b63 g     F .text	0000006d get_item_type
000117de g     F .text	000000f5 first_task_init
00012d1f g     F .text	0000001c do_handler_NMI
0001b060 g     O .data	00000038 dev_disk_desc
00013e64 g     F .text	00000010 set_col0
0001238e g     F .text	000000c2 load_phdr
0001882e g     F .text	00000070 kernel_strncpy
000128f5 g     F .text	00000039 gdt_free_tss
00013125 g     F .text	0000000b irq_disable_global
000135be g     F .text	0000005b console_clear
00017750 g     F .text	0000005c sys_write
800003c2 g     F .first_task	00000021 wait
000605e7 g       *ABS*	00000000 mem_free_start
00018112 g     F .text	00000058 kernel_init
000183e5 g     F .text	00000023 sem_init
00011b24 g     F .text	0000003d set_sleep
00010000 g       .text	00000000 _start
00018ba4 g     F .text	0000014b kernel_vsprintf
00010110 g       .text	00000000 exception_handler_device_unavailable
000100f3 g       .text	00000000 exception_handler_invalid_opcode
00014207 g     F .text	00000084 dev_close
000139eb g     F .text	0000001e save_cursor
00060204 g       .bss	00000000 e_data
80000237 g     F .first_task	0000002e read
00018284 g     F .text	00000096 mutex_lock
00017ee8 g     F .text	00000050 sys_closedir
00016f8e g     F .text	000000f8 fatfs_unlink
000112bb g     F .text	00000053 task_alloc_fd
0001598e g     F .text	0000000a devfs_seek
00016c81 g     F .text	000000aa write_dir_ent
00010207 g       .text	00000000 exception_handler_machine_check
00015485 g     F .text	000000f5 tty_write
00012de3 g     F .text	0000001c do_handler_invalid_tss
0001527c g     F .text	00000098 tty_fifo_put
00016bfc g     F .text	00000085 read_dir_ent
000605e7 g       *ABS*	00000000 e_first_task
00013a09 g     F .text	0000001e load_cursor
000185c8 g     F .text	000000d4 bitmap_set_nbit
000138d0 g     F .text	00000078 cursor_backword
00017da4 g     F .text	0000009e sys_dup
00012c91 g     F .text	0000003a irq_install
000186b7 g     F .text	000000b8 bitmap_alloc_nbit
000127de g     F .text	00000084 init_gdt
000157fb g     F .text	00000017 devfs_mount
00015117 g     F .text	000000e6 tty_open
800001a9 g     F .first_task	0000001c fork
00018256 g     F .text	0000002e mutex_init
00011a20 g     F .text	0000000a current_task
000131c6 g     F .text	00000087 irq_disable
000163e7 g     F .text	00000029 clust_is_valid
8000035e g     F .first_task	00000021 sbrk
0001b100 g     O .data	00000034 devfs_op
00013e74 g     F .text	00000038 add_row1
00015818 g     F .text	00000113 devfs_open
00010224 g       .text	00000000 exception_handler_smd_exception
00017cf7 g     F .text	000000ad sys_ioctl
00014522 g     F .text	000000c7 print_disk_info
00016410 g     F .text	00000059 bread_sector
00010b9e g     F .text	000000ff memory_destroy_uvm
000108b0 g     F .text	00000025 memory_alloc_for_page
00012dab g     F .text	0000001c do_handler_device_unavailable
00017f38 g     F .text	00000050 sys_unlink
00016155 g     F .text	0000008b to_snf
00016b56 g     F .text	00000013 fatfs_opendir
000119de g     F .text	00000042 task_dispatch
00010a49 g     F .text	00000155 memory_copy_uvm
00015642 g     F .text	00000006 tty_close
000160ee g     F .text	00000067 read_from_diritem
00018574 g     F .text	00000016 bit_count
0001594f g     F .text	00000024 devfs_write
0001816a g     F .text	00000066 move_to_first_task
00017aed g     F .text	000001a4 mount
00015973 g     F .text	0000001b devfs_close
00013d4a g     F .text	00000110 console_write
0001343e g     F .text	00000011 leave_protection
8000037f g     F .first_task	00000021 dup
00011999 g     F .text	00000045 task_next_run
00018776 g     F .text	0000002b count_string
000189e3 g     F .text	0000005e kernel_memcmp
000106b9 g     F .text	000000a3 create_kernel_table
00018d38 g     F .text	00000025 list_init
0001305a g     F .text	0000001c do_handler_smd_exception
00016469 g     F .text	0000003e bwrite_sector
80000000 g       .first_task	00000000 _first_task_entry
000101b4 g       .text	00000000 exception_handler_page_fault
00012ccb g     F .text	0000001c do_handler_unknown
00010986 g     F .text	0000001a memory_alloc_page
000101cf g       .text	00000000 exception_handler_fpu_error
00011b61 g     F .text	00000020 set_wake
000116cf g     F .text	0000001e task_switch_from_to
0001324d g     F .text	000001ae irq_init
00017ab5 g     F .text	00000038 get_fs_op
0001831a g     F .text	000000c0 mutex_unlock
00017153 g     F .text	00000030 file_table_init
00017111 g     F .text	00000042 file_free
00016217 g     F .text	00000052 diritem_init
00016562 g     F .text	000000c2 move_pos
0001889e g     F .text	0000003b kernel_strlen
00012711 g     F .text	00000086 segment_desc_set
00012d73 g     F .text	0000001c do_handler_bound_range
000102c9 g       .text	00000000 exception_handler_syscall
00014925 g     F .text	000000f5 disk_open
000171bb g     F .text	00000038 ref_dec
00016269 g     F .text	0000017e fatfs_open
00060200 g     O .bss	00000004 kbd_state
00018e20 g     F .text	00000078 list_remove_first
0001a23d g       .rodata	00000000 e_text
000188d9 g     F .text	0000007a kernel_strncmp
00017e42 g     F .text	00000053 sys_opendir
0001851e g     F .text	00000056 bitmap_init
00011911 g     F .text	0000002b set_block
00010163 g       .text	00000000 exception_handler_segment_not_present
0001007f g       .text	00000000 exception_handler_NMI
00016b4c g     F .text	0000000a fatfs_stat
00017086 g     F .text	0000008b file_alloc
000116f7 g     F .text	000000e7 task_manager_init
00011613 g     F .text	0000002d task_start
00010062 g       .text	00000000 exception_handler_Debug
00011a2a g     F .text	000000fa task_time_tick
0001075c g     F .text	000000cc memory_init
00011e03 g     F .text	000001d9 sys_execve
00014b07 g     F .text	000000ed disk_write
00012450 g     F .text	00000138 sys_wait
00012588 g     F .text	00000161 sys_exit
00013a27 g     F .text	00000029 clear_esc_param
00018cef g     F .text	00000036 pannic
00015648 g     F .text	00000029 tty_select
00013e5a g     F .text	0000000a console_close
00010c9d g     F .text	00000046 memory_get_paddr
00012e1b g     F .text	0000001c do_handler_stack_segment_fault
00012d3b g     F .text	0000001c do_handler_breakpoint
00015812 g     F .text	00000006 devfs_unmount
800003a0 g     F .first_task	00000022 _exit
0001592b g     F .text	00000024 devfs_read
00018f4c g     F .text	000000cd log_printf
00016b69 g     F .text	00000093 get_item_name
000114e9 g     F .text	0000012a task_init
00010045 g       .text	00000000 exception_handler_divider0
00014a1a g     F .text	000000ed disk_read
8000020f g     F .first_task	00000028 open
00016f34 g     F .text	0000005a cluster_free_chain
00018b80 g     F .text	00000024 kernel_sprintf
00014c73 g     F .text	00000015 get_key
000161e0 g     F .text	00000037 item_name_match
00011bdc g     F .text	0000000d sys_getpid
00012880 g     F .text	00000075 gdt_alloc_desc
0001858a g     F .text	0000003e bitmap_get_index
00018a41 g     F .text	0000013f kernel_itoa
00018e98 g     F .text	00000085 list_remove
0001193c g     F .text	0000005d sys_shed_yield
00012797 g     F .text	00000047 gate_desc_set
800002c1 g     F .first_task	00000022 close
00014c04 g     F .text	00000038 do_handler_ide_primary
0001056c g     F .text	000000b0 find_pte
000150a0 g     F .text	00000028 do_handler_time
0001b0a0 g     O .data	00000038 dev_tty_desc



Disassembly of section .text:

00010000 <_start>:
    # 第二种方法
    # mov 4(%esp), %eax
    # push %eax

    # 第三种方法
    push 4(%esp)
   10000:	ff 74 24 04          	pushl  0x4(%esp)

    # kernel_init(boot_info)
    call kernel_init
   10004:	e8 09 81 00 00       	call   18112 <kernel_init>

    	// 重新加载GDT
	jmp $KERNEL_SELECTOR_CS, $gdt_reload
   10009:	ea 10 00 01 00 08 00 	ljmp   $0x8,$0x10010

00010010 <gdt_reload>:

gdt_reload:
	mov $KERNEL_SELECTOR_DS, %ax		// 16为数据段选择子
   10010:	66 b8 10 00          	mov    $0x10,%ax
	mov %ax, %ds
   10014:	8e d8                	mov    %eax,%ds
    mov %ax, %ss
   10016:	8e d0                	mov    %eax,%ss
    mov %ax, %es
   10018:	8e c0                	mov    %eax,%es
    mov %ax, %fs
   1001a:	8e e0                	mov    %eax,%fs
    mov %ax, %gs
   1001c:	8e e8                	mov    %eax,%gs

	// 栈设置
	mov $(stack + KERNEL_STACK_SIZE), %esp
   1001e:	bc 40 fc 05 00       	mov    $0x5fc40,%esp

	// 栈和段等沿用之前的设置
	jmp init_main
   10023:	e9 a8 81 00 00       	jmp    181d0 <init_main>

00010028 <exception_handler_unknown>:
    add $(2*4), %esp
    iret

.endm

exception_handler unknown, -1, 0
   10028:	6a 00                	push   $0x0
   1002a:	6a ff                	push   $0xffffffff
   1002c:	60                   	pusha  
   1002d:	1e                   	push   %ds
   1002e:	06                   	push   %es
   1002f:	0f a0                	push   %fs
   10031:	0f a8                	push   %gs
   10033:	54                   	push   %esp
   10034:	e8 92 2c 00 00       	call   12ccb <do_handler_unknown>
   10039:	5c                   	pop    %esp
   1003a:	0f a9                	pop    %gs
   1003c:	0f a1                	pop    %fs
   1003e:	07                   	pop    %es
   1003f:	1f                   	pop    %ds
   10040:	61                   	popa   
   10041:	83 c4 08             	add    $0x8,%esp
   10044:	cf                   	iret   

00010045 <exception_handler_divider0>:
exception_handler divider0, 0, 0
   10045:	6a 00                	push   $0x0
   10047:	6a 00                	push   $0x0
   10049:	60                   	pusha  
   1004a:	1e                   	push   %ds
   1004b:	06                   	push   %es
   1004c:	0f a0                	push   %fs
   1004e:	0f a8                	push   %gs
   10050:	54                   	push   %esp
   10051:	e8 91 2c 00 00       	call   12ce7 <do_handler_divider0>
   10056:	5c                   	pop    %esp
   10057:	0f a9                	pop    %gs
   10059:	0f a1                	pop    %fs
   1005b:	07                   	pop    %es
   1005c:	1f                   	pop    %ds
   1005d:	61                   	popa   
   1005e:	83 c4 08             	add    $0x8,%esp
   10061:	cf                   	iret   

00010062 <exception_handler_Debug>:
exception_handler Debug, 1, 0
   10062:	6a 00                	push   $0x0
   10064:	6a 01                	push   $0x1
   10066:	60                   	pusha  
   10067:	1e                   	push   %ds
   10068:	06                   	push   %es
   10069:	0f a0                	push   %fs
   1006b:	0f a8                	push   %gs
   1006d:	54                   	push   %esp
   1006e:	e8 90 2c 00 00       	call   12d03 <do_handler_Debug>
   10073:	5c                   	pop    %esp
   10074:	0f a9                	pop    %gs
   10076:	0f a1                	pop    %fs
   10078:	07                   	pop    %es
   10079:	1f                   	pop    %ds
   1007a:	61                   	popa   
   1007b:	83 c4 08             	add    $0x8,%esp
   1007e:	cf                   	iret   

0001007f <exception_handler_NMI>:
exception_handler NMI, 2, 0
   1007f:	6a 00                	push   $0x0
   10081:	6a 02                	push   $0x2
   10083:	60                   	pusha  
   10084:	1e                   	push   %ds
   10085:	06                   	push   %es
   10086:	0f a0                	push   %fs
   10088:	0f a8                	push   %gs
   1008a:	54                   	push   %esp
   1008b:	e8 8f 2c 00 00       	call   12d1f <do_handler_NMI>
   10090:	5c                   	pop    %esp
   10091:	0f a9                	pop    %gs
   10093:	0f a1                	pop    %fs
   10095:	07                   	pop    %es
   10096:	1f                   	pop    %ds
   10097:	61                   	popa   
   10098:	83 c4 08             	add    $0x8,%esp
   1009b:	cf                   	iret   

0001009c <exception_handler_breakpoint>:
exception_handler breakpoint, 3, 0
   1009c:	6a 00                	push   $0x0
   1009e:	6a 03                	push   $0x3
   100a0:	60                   	pusha  
   100a1:	1e                   	push   %ds
   100a2:	06                   	push   %es
   100a3:	0f a0                	push   %fs
   100a5:	0f a8                	push   %gs
   100a7:	54                   	push   %esp
   100a8:	e8 8e 2c 00 00       	call   12d3b <do_handler_breakpoint>
   100ad:	5c                   	pop    %esp
   100ae:	0f a9                	pop    %gs
   100b0:	0f a1                	pop    %fs
   100b2:	07                   	pop    %es
   100b3:	1f                   	pop    %ds
   100b4:	61                   	popa   
   100b5:	83 c4 08             	add    $0x8,%esp
   100b8:	cf                   	iret   

000100b9 <exception_handler_overflow>:
exception_handler overflow, 4, 0
   100b9:	6a 00                	push   $0x0
   100bb:	6a 04                	push   $0x4
   100bd:	60                   	pusha  
   100be:	1e                   	push   %ds
   100bf:	06                   	push   %es
   100c0:	0f a0                	push   %fs
   100c2:	0f a8                	push   %gs
   100c4:	54                   	push   %esp
   100c5:	e8 8d 2c 00 00       	call   12d57 <do_handler_overflow>
   100ca:	5c                   	pop    %esp
   100cb:	0f a9                	pop    %gs
   100cd:	0f a1                	pop    %fs
   100cf:	07                   	pop    %es
   100d0:	1f                   	pop    %ds
   100d1:	61                   	popa   
   100d2:	83 c4 08             	add    $0x8,%esp
   100d5:	cf                   	iret   

000100d6 <exception_handler_bound_range>:
exception_handler bound_range, 5, 0
   100d6:	6a 00                	push   $0x0
   100d8:	6a 05                	push   $0x5
   100da:	60                   	pusha  
   100db:	1e                   	push   %ds
   100dc:	06                   	push   %es
   100dd:	0f a0                	push   %fs
   100df:	0f a8                	push   %gs
   100e1:	54                   	push   %esp
   100e2:	e8 8c 2c 00 00       	call   12d73 <do_handler_bound_range>
   100e7:	5c                   	pop    %esp
   100e8:	0f a9                	pop    %gs
   100ea:	0f a1                	pop    %fs
   100ec:	07                   	pop    %es
   100ed:	1f                   	pop    %ds
   100ee:	61                   	popa   
   100ef:	83 c4 08             	add    $0x8,%esp
   100f2:	cf                   	iret   

000100f3 <exception_handler_invalid_opcode>:
exception_handler invalid_opcode, 6, 0
   100f3:	6a 00                	push   $0x0
   100f5:	6a 06                	push   $0x6
   100f7:	60                   	pusha  
   100f8:	1e                   	push   %ds
   100f9:	06                   	push   %es
   100fa:	0f a0                	push   %fs
   100fc:	0f a8                	push   %gs
   100fe:	54                   	push   %esp
   100ff:	e8 8b 2c 00 00       	call   12d8f <do_handler_invalid_opcode>
   10104:	5c                   	pop    %esp
   10105:	0f a9                	pop    %gs
   10107:	0f a1                	pop    %fs
   10109:	07                   	pop    %es
   1010a:	1f                   	pop    %ds
   1010b:	61                   	popa   
   1010c:	83 c4 08             	add    $0x8,%esp
   1010f:	cf                   	iret   

00010110 <exception_handler_device_unavailable>:
exception_handler device_unavailable, 7, 0
   10110:	6a 00                	push   $0x0
   10112:	6a 07                	push   $0x7
   10114:	60                   	pusha  
   10115:	1e                   	push   %ds
   10116:	06                   	push   %es
   10117:	0f a0                	push   %fs
   10119:	0f a8                	push   %gs
   1011b:	54                   	push   %esp
   1011c:	e8 8a 2c 00 00       	call   12dab <do_handler_device_unavailable>
   10121:	5c                   	pop    %esp
   10122:	0f a9                	pop    %gs
   10124:	0f a1                	pop    %fs
   10126:	07                   	pop    %es
   10127:	1f                   	pop    %ds
   10128:	61                   	popa   
   10129:	83 c4 08             	add    $0x8,%esp
   1012c:	cf                   	iret   

0001012d <exception_handler_double_fault>:
exception_handler double_fault, 8, 1
   1012d:	6a 08                	push   $0x8
   1012f:	60                   	pusha  
   10130:	1e                   	push   %ds
   10131:	06                   	push   %es
   10132:	0f a0                	push   %fs
   10134:	0f a8                	push   %gs
   10136:	54                   	push   %esp
   10137:	e8 8b 2c 00 00       	call   12dc7 <do_handler_double_fault>
   1013c:	5c                   	pop    %esp
   1013d:	0f a9                	pop    %gs
   1013f:	0f a1                	pop    %fs
   10141:	07                   	pop    %es
   10142:	1f                   	pop    %ds
   10143:	61                   	popa   
   10144:	83 c4 08             	add    $0x8,%esp
   10147:	cf                   	iret   

00010148 <exception_handler_invalid_tss>:
exception_handler invalid_tss, 10, 1
   10148:	6a 0a                	push   $0xa
   1014a:	60                   	pusha  
   1014b:	1e                   	push   %ds
   1014c:	06                   	push   %es
   1014d:	0f a0                	push   %fs
   1014f:	0f a8                	push   %gs
   10151:	54                   	push   %esp
   10152:	e8 8c 2c 00 00       	call   12de3 <do_handler_invalid_tss>
   10157:	5c                   	pop    %esp
   10158:	0f a9                	pop    %gs
   1015a:	0f a1                	pop    %fs
   1015c:	07                   	pop    %es
   1015d:	1f                   	pop    %ds
   1015e:	61                   	popa   
   1015f:	83 c4 08             	add    $0x8,%esp
   10162:	cf                   	iret   

00010163 <exception_handler_segment_not_present>:
exception_handler segment_not_present, 11, 1
   10163:	6a 0b                	push   $0xb
   10165:	60                   	pusha  
   10166:	1e                   	push   %ds
   10167:	06                   	push   %es
   10168:	0f a0                	push   %fs
   1016a:	0f a8                	push   %gs
   1016c:	54                   	push   %esp
   1016d:	e8 8d 2c 00 00       	call   12dff <do_handler_segment_not_present>
   10172:	5c                   	pop    %esp
   10173:	0f a9                	pop    %gs
   10175:	0f a1                	pop    %fs
   10177:	07                   	pop    %es
   10178:	1f                   	pop    %ds
   10179:	61                   	popa   
   1017a:	83 c4 08             	add    $0x8,%esp
   1017d:	cf                   	iret   

0001017e <exception_handler_stack_segment_fault>:
exception_handler stack_segment_fault, 12, 1
   1017e:	6a 0c                	push   $0xc
   10180:	60                   	pusha  
   10181:	1e                   	push   %ds
   10182:	06                   	push   %es
   10183:	0f a0                	push   %fs
   10185:	0f a8                	push   %gs
   10187:	54                   	push   %esp
   10188:	e8 8e 2c 00 00       	call   12e1b <do_handler_stack_segment_fault>
   1018d:	5c                   	pop    %esp
   1018e:	0f a9                	pop    %gs
   10190:	0f a1                	pop    %fs
   10192:	07                   	pop    %es
   10193:	1f                   	pop    %ds
   10194:	61                   	popa   
   10195:	83 c4 08             	add    $0x8,%esp
   10198:	cf                   	iret   

00010199 <exception_handler_general_protection>:
exception_handler general_protection, 13, 1
   10199:	6a 0d                	push   $0xd
   1019b:	60                   	pusha  
   1019c:	1e                   	push   %ds
   1019d:	06                   	push   %es
   1019e:	0f a0                	push   %fs
   101a0:	0f a8                	push   %gs
   101a2:	54                   	push   %esp
   101a3:	e8 8f 2c 00 00       	call   12e37 <do_handler_general_protection>
   101a8:	5c                   	pop    %esp
   101a9:	0f a9                	pop    %gs
   101ab:	0f a1                	pop    %fs
   101ad:	07                   	pop    %es
   101ae:	1f                   	pop    %ds
   101af:	61                   	popa   
   101b0:	83 c4 08             	add    $0x8,%esp
   101b3:	cf                   	iret   

000101b4 <exception_handler_page_fault>:
exception_handler page_fault, 14, 1
   101b4:	6a 0e                	push   $0xe
   101b6:	60                   	pusha  
   101b7:	1e                   	push   %ds
   101b8:	06                   	push   %es
   101b9:	0f a0                	push   %fs
   101bb:	0f a8                	push   %gs
   101bd:	54                   	push   %esp
   101be:	e8 4c 2d 00 00       	call   12f0f <do_handler_page_fault>
   101c3:	5c                   	pop    %esp
   101c4:	0f a9                	pop    %gs
   101c6:	0f a1                	pop    %fs
   101c8:	07                   	pop    %es
   101c9:	1f                   	pop    %ds
   101ca:	61                   	popa   
   101cb:	83 c4 08             	add    $0x8,%esp
   101ce:	cf                   	iret   

000101cf <exception_handler_fpu_error>:
exception_handler fpu_error, 16, 0
   101cf:	6a 00                	push   $0x0
   101d1:	6a 10                	push   $0x10
   101d3:	60                   	pusha  
   101d4:	1e                   	push   %ds
   101d5:	06                   	push   %es
   101d6:	0f a0                	push   %fs
   101d8:	0f a8                	push   %gs
   101da:	54                   	push   %esp
   101db:	e8 26 2e 00 00       	call   13006 <do_handler_fpu_error>
   101e0:	5c                   	pop    %esp
   101e1:	0f a9                	pop    %gs
   101e3:	0f a1                	pop    %fs
   101e5:	07                   	pop    %es
   101e6:	1f                   	pop    %ds
   101e7:	61                   	popa   
   101e8:	83 c4 08             	add    $0x8,%esp
   101eb:	cf                   	iret   

000101ec <exception_handler_alignment_check>:
exception_handler alignment_check, 17, 1
   101ec:	6a 11                	push   $0x11
   101ee:	60                   	pusha  
   101ef:	1e                   	push   %ds
   101f0:	06                   	push   %es
   101f1:	0f a0                	push   %fs
   101f3:	0f a8                	push   %gs
   101f5:	54                   	push   %esp
   101f6:	e8 27 2e 00 00       	call   13022 <do_handler_alignment_check>
   101fb:	5c                   	pop    %esp
   101fc:	0f a9                	pop    %gs
   101fe:	0f a1                	pop    %fs
   10200:	07                   	pop    %es
   10201:	1f                   	pop    %ds
   10202:	61                   	popa   
   10203:	83 c4 08             	add    $0x8,%esp
   10206:	cf                   	iret   

00010207 <exception_handler_machine_check>:
exception_handler machine_check, 18, 0
   10207:	6a 00                	push   $0x0
   10209:	6a 12                	push   $0x12
   1020b:	60                   	pusha  
   1020c:	1e                   	push   %ds
   1020d:	06                   	push   %es
   1020e:	0f a0                	push   %fs
   10210:	0f a8                	push   %gs
   10212:	54                   	push   %esp
   10213:	e8 26 2e 00 00       	call   1303e <do_handler_machine_check>
   10218:	5c                   	pop    %esp
   10219:	0f a9                	pop    %gs
   1021b:	0f a1                	pop    %fs
   1021d:	07                   	pop    %es
   1021e:	1f                   	pop    %ds
   1021f:	61                   	popa   
   10220:	83 c4 08             	add    $0x8,%esp
   10223:	cf                   	iret   

00010224 <exception_handler_smd_exception>:
exception_handler smd_exception, 19, 0
   10224:	6a 00                	push   $0x0
   10226:	6a 13                	push   $0x13
   10228:	60                   	pusha  
   10229:	1e                   	push   %ds
   1022a:	06                   	push   %es
   1022b:	0f a0                	push   %fs
   1022d:	0f a8                	push   %gs
   1022f:	54                   	push   %esp
   10230:	e8 25 2e 00 00       	call   1305a <do_handler_smd_exception>
   10235:	5c                   	pop    %esp
   10236:	0f a9                	pop    %gs
   10238:	0f a1                	pop    %fs
   1023a:	07                   	pop    %es
   1023b:	1f                   	pop    %ds
   1023c:	61                   	popa   
   1023d:	83 c4 08             	add    $0x8,%esp
   10240:	cf                   	iret   

00010241 <exception_handler_virtual_exception>:
exception_handler virtual_exception, 20, 0
   10241:	6a 00                	push   $0x0
   10243:	6a 14                	push   $0x14
   10245:	60                   	pusha  
   10246:	1e                   	push   %ds
   10247:	06                   	push   %es
   10248:	0f a0                	push   %fs
   1024a:	0f a8                	push   %gs
   1024c:	54                   	push   %esp
   1024d:	e8 24 2e 00 00       	call   13076 <do_handler_virtual_exception>
   10252:	5c                   	pop    %esp
   10253:	0f a9                	pop    %gs
   10255:	0f a1                	pop    %fs
   10257:	07                   	pop    %es
   10258:	1f                   	pop    %ds
   10259:	61                   	popa   
   1025a:	83 c4 08             	add    $0x8,%esp
   1025d:	cf                   	iret   

0001025e <exception_handler_time>:
exception_handler time, 0x20, 0
   1025e:	6a 00                	push   $0x0
   10260:	6a 20                	push   $0x20
   10262:	60                   	pusha  
   10263:	1e                   	push   %ds
   10264:	06                   	push   %es
   10265:	0f a0                	push   %fs
   10267:	0f a8                	push   %gs
   10269:	54                   	push   %esp
   1026a:	e8 31 4e 00 00       	call   150a0 <do_handler_time>
   1026f:	5c                   	pop    %esp
   10270:	0f a9                	pop    %gs
   10272:	0f a1                	pop    %fs
   10274:	07                   	pop    %es
   10275:	1f                   	pop    %ds
   10276:	61                   	popa   
   10277:	83 c4 08             	add    $0x8,%esp
   1027a:	cf                   	iret   

0001027b <exception_handler_kbd>:
exception_handler kbd, 0x21, 0
   1027b:	6a 00                	push   $0x0
   1027d:	6a 21                	push   $0x21
   1027f:	60                   	pusha  
   10280:	1e                   	push   %ds
   10281:	06                   	push   %es
   10282:	0f a0                	push   %fs
   10284:	0f a8                	push   %gs
   10286:	54                   	push   %esp
   10287:	e8 fa 4b 00 00       	call   14e86 <do_handler_kbd>
   1028c:	5c                   	pop    %esp
   1028d:	0f a9                	pop    %gs
   1028f:	0f a1                	pop    %fs
   10291:	07                   	pop    %es
   10292:	1f                   	pop    %ds
   10293:	61                   	popa   
   10294:	83 c4 08             	add    $0x8,%esp
   10297:	cf                   	iret   

00010298 <exception_handler_ide_primary>:
exception_handler ide_primary, 0x2E, 0
   10298:	6a 00                	push   $0x0
   1029a:	6a 2e                	push   $0x2e
   1029c:	60                   	pusha  
   1029d:	1e                   	push   %ds
   1029e:	06                   	push   %es
   1029f:	0f a0                	push   %fs
   102a1:	0f a8                	push   %gs
   102a3:	54                   	push   %esp
   102a4:	e8 5b 49 00 00       	call   14c04 <do_handler_ide_primary>
   102a9:	5c                   	pop    %esp
   102aa:	0f a9                	pop    %gs
   102ac:	0f a1                	pop    %fs
   102ae:	07                   	pop    %es
   102af:	1f                   	pop    %ds
   102b0:	61                   	popa   
   102b1:	83 c4 08             	add    $0x8,%esp
   102b4:	cf                   	iret   

000102b5 <simple_switch>:
;     .text
;     .global simple_switch
;     //simple_switch(&from, to)
; simple_switch:
;     mov 8(%esp), %edx
   102b5:	8b 54 24 08          	mov    0x8(%esp),%edx
;     mov 4(%esp), %eax
   102b9:	8b 44 24 04          	mov    0x4(%esp),%eax
;     push %ebp
   102bd:	55                   	push   %ebp
;     push %ebx
   102be:	53                   	push   %ebx
;     push %esi
   102bf:	56                   	push   %esi
;     push %edi
   102c0:	57                   	push   %edi
;     mov %esp, (%eax)
   102c1:	89 20                	mov    %esp,(%eax)

;     mov %edx, %esp
   102c3:	89 d4                	mov    %edx,%esp
;     pop %edi
   102c5:	5f                   	pop    %edi
;     pop %esi
   102c6:	5e                   	pop    %esi
;     pop %ebx
   102c7:	5b                   	pop    %ebx
;     pop %ebp
   102c8:	5d                   	pop    %ebp

000102c9 <exception_handler_syscall>:

    .global exception_handler_syscall
    .extern do_handler_syscall
exception_handler_syscall:
    pusha
   102c9:	60                   	pusha  
    push %ds
   102ca:	1e                   	push   %ds
    push %es
   102cb:	06                   	push   %es
    push %fs
   102cc:	0f a0                	push   %fs
    push %gs
   102ce:	0f a8                	push   %gs
    pushf
   102d0:	9c                   	pushf  
    mov $(KERNEL_SELECTOR_DS), %eax
   102d1:	b8 10 00 00 00       	mov    $0x10,%eax
	mov %eax, %ds
   102d6:	8e d8                	mov    %eax,%ds
	mov %eax, %es
   102d8:	8e c0                	mov    %eax,%es
	mov %eax, %fs
   102da:	8e e0                	mov    %eax,%fs
	mov %eax, %gs
   102dc:	8e e8                	mov    %eax,%gs
    mov %esp, %eax
   102de:	89 e0                	mov    %esp,%eax
    push %eax
   102e0:	50                   	push   %eax
    call do_handler_syscall
   102e1:	e8 16 0d 00 00       	call   10ffc <do_handler_syscall>
    add $4, %esp
   102e6:	83 c4 04             	add    $0x4,%esp
    popf
   102e9:	9d                   	popf   
    pop %gs
   102ea:	0f a9                	pop    %gs
    pop %fs
   102ec:	0f a1                	pop    %fs
    pop %es
   102ee:	07                   	pop    %es
    pop %ds
   102ef:	1f                   	pop    %ds
    popa
   102f0:	61                   	popa   
   102f1:	ca 14 00             	lret   $0x14

000102f4 <write_cr3>:

static inline void write_cr0(uint32_t v) {
	__asm__ __volatile__("mov %[v], %%cr0"::[v]"r"(v));
}

static inline void write_cr3(uint32_t v) {
   102f4:	55                   	push   %ebp
   102f5:	89 e5                	mov    %esp,%ebp
    __asm__ __volatile__("mov %[v], %%cr3"::[v]"r"(v));
   102f7:	8b 45 08             	mov    0x8(%ebp),%eax
   102fa:	0f 22 d8             	mov    %eax,%cr3
}
   102fd:	90                   	nop
   102fe:	5d                   	pop    %ebp
   102ff:	c3                   	ret    

00010300 <up2>:
#define KLIB_H
#include  <stdarg.h>
#include "comm/types.h"
#include "tools/log.h"
#include "comm/cpu_instr.h"
static inline uint32_t up2 (uint32_t size, uint32_t bound) {
   10300:	55                   	push   %ebp
   10301:	89 e5                	mov    %esp,%ebp
    return (size + bound - 1) & ~(bound - 1);
   10303:	8b 55 08             	mov    0x8(%ebp),%edx
   10306:	8b 45 0c             	mov    0xc(%ebp),%eax
   10309:	01 d0                	add    %edx,%eax
   1030b:	8d 50 ff             	lea    -0x1(%eax),%edx
   1030e:	8b 45 0c             	mov    0xc(%ebp),%eax
   10311:	f7 d8                	neg    %eax
   10313:	21 d0                	and    %edx,%eax
}
   10315:	5d                   	pop    %ebp
   10316:	c3                   	ret    

00010317 <down2>:

static inline uint32_t down2 (uint32_t size, uint32_t bound) {
   10317:	55                   	push   %ebp
   10318:	89 e5                	mov    %esp,%ebp
    return size & ~(bound - 1);
   1031a:	8b 45 0c             	mov    0xc(%ebp),%eax
   1031d:	f7 d8                	neg    %eax
   1031f:	23 45 08             	and    0x8(%ebp),%eax
}
   10322:	5d                   	pop    %ebp
   10323:	c3                   	ret    

00010324 <mmu_set_page_dir>:
}pte_t;

#pragma pack()

static inline void mmu_set_page_dir(uint32_t page_dir)
{
   10324:	55                   	push   %ebp
   10325:	89 e5                	mov    %esp,%ebp
    write_cr3(page_dir);
   10327:	ff 75 08             	pushl  0x8(%ebp)
   1032a:	e8 c5 ff ff ff       	call   102f4 <write_cr3>
   1032f:	83 c4 04             	add    $0x4,%esp
}
   10332:	90                   	nop
   10333:	c9                   	leave  
   10334:	c3                   	ret    

00010335 <pde_index>:

static inline uint32_t pde_index(uint32_t vaddr){
   10335:	55                   	push   %ebp
   10336:	89 e5                	mov    %esp,%ebp
    return  (vaddr >> 22);
   10338:	8b 45 08             	mov    0x8(%ebp),%eax
   1033b:	c1 e8 16             	shr    $0x16,%eax
}
   1033e:	5d                   	pop    %ebp
   1033f:	c3                   	ret    

00010340 <pte_index>:

static inline uint32_t pte_index(uint32_t vaddr){
   10340:	55                   	push   %ebp
   10341:	89 e5                	mov    %esp,%ebp
    return  (vaddr >> 12) & 0x3ff;
   10343:	8b 45 08             	mov    0x8(%ebp),%eax
   10346:	c1 e8 0c             	shr    $0xc,%eax
   10349:	25 ff 03 00 00       	and    $0x3ff,%eax
}
   1034e:	5d                   	pop    %ebp
   1034f:	c3                   	ret    

00010350 <pde_paddr>:
static inline uint32_t pde_paddr(pde_t* desc)
{
   10350:	55                   	push   %ebp
   10351:	89 e5                	mov    %esp,%ebp
    return (desc->phy_pt_addr << 12);
   10353:	8b 45 08             	mov    0x8(%ebp),%eax
   10356:	0f b6 50 01          	movzbl 0x1(%eax),%edx
   1035a:	c0 ea 04             	shr    $0x4,%dl
   1035d:	0f b6 d2             	movzbl %dl,%edx
   10360:	0f b6 48 02          	movzbl 0x2(%eax),%ecx
   10364:	c1 e1 04             	shl    $0x4,%ecx
   10367:	09 ca                	or     %ecx,%edx
   10369:	0f b6 40 03          	movzbl 0x3(%eax),%eax
   1036d:	c1 e0 0c             	shl    $0xc,%eax
   10370:	09 d0                	or     %edx,%eax
   10372:	c1 e0 0c             	shl    $0xc,%eax
}
   10375:	5d                   	pop    %ebp
   10376:	c3                   	ret    

00010377 <pte_paddr>:
static inline uint32_t pte_paddr(pte_t* desc)
{
   10377:	55                   	push   %ebp
   10378:	89 e5                	mov    %esp,%ebp
    return (desc -> phy_page_addr << 12);
   1037a:	8b 45 08             	mov    0x8(%ebp),%eax
   1037d:	0f b6 50 01          	movzbl 0x1(%eax),%edx
   10381:	c0 ea 04             	shr    $0x4,%dl
   10384:	0f b6 d2             	movzbl %dl,%edx
   10387:	0f b6 48 02          	movzbl 0x2(%eax),%ecx
   1038b:	c1 e1 04             	shl    $0x4,%ecx
   1038e:	09 ca                	or     %ecx,%edx
   10390:	0f b6 40 03          	movzbl 0x3(%eax),%eax
   10394:	c1 e0 0c             	shl    $0xc,%eax
   10397:	09 d0                	or     %edx,%eax
   10399:	c1 e0 0c             	shl    $0xc,%eax
}
   1039c:	5d                   	pop    %ebp
   1039d:	c3                   	ret    

0001039e <get_pte_perm>:

static inline uint32_t get_pte_perm(pte_t* desc)
{
   1039e:	55                   	push   %ebp
   1039f:	89 e5                	mov    %esp,%ebp
    return (desc->v & 0x3FF);
   103a1:	8b 45 08             	mov    0x8(%ebp),%eax
   103a4:	8b 00                	mov    (%eax),%eax
   103a6:	25 ff 03 00 00       	and    $0x3ff,%eax
   103ab:	5d                   	pop    %ebp
   103ac:	c3                   	ret    

000103ad <addr_alloc_init>:
#include "dev/console.h"
static addr_alloc_t paddr_alloc; 
static pde_t kernel_page_dir[PDE_CNT] __attribute__((aligned(4096)));
static void addr_alloc_init(addr_alloc_t * alloc, uint8_t* bits, uint32_t start,
uint32_t size, uint32_t page_size) 
{
   103ad:	55                   	push   %ebp
   103ae:	89 e5                	mov    %esp,%ebp
   103b0:	83 ec 08             	sub    $0x8,%esp
    mutex_init(&alloc->mutex);
   103b3:	8b 45 08             	mov    0x8(%ebp),%eax
   103b6:	83 ec 0c             	sub    $0xc,%esp
   103b9:	50                   	push   %eax
   103ba:	e8 97 7e 00 00       	call   18256 <mutex_init>
   103bf:	83 c4 10             	add    $0x10,%esp
    alloc -> start = start;
   103c2:	8b 45 08             	mov    0x8(%ebp),%eax
   103c5:	8b 55 10             	mov    0x10(%ebp),%edx
   103c8:	89 50 14             	mov    %edx,0x14(%eax)
    alloc -> size = size;
   103cb:	8b 45 08             	mov    0x8(%ebp),%eax
   103ce:	8b 55 14             	mov    0x14(%ebp),%edx
   103d1:	89 50 18             	mov    %edx,0x18(%eax)
    alloc -> page_size = page_size;
   103d4:	8b 45 08             	mov    0x8(%ebp),%eax
   103d7:	8b 55 18             	mov    0x18(%ebp),%edx
   103da:	89 50 1c             	mov    %edx,0x1c(%eax)
    bitmap_init(&alloc->bitmap, bits, alloc->size / page_size, 0);
   103dd:	8b 45 08             	mov    0x8(%ebp),%eax
   103e0:	8b 40 18             	mov    0x18(%eax),%eax
   103e3:	ba 00 00 00 00       	mov    $0x0,%edx
   103e8:	f7 75 18             	divl   0x18(%ebp)
   103eb:	89 c2                	mov    %eax,%edx
   103ed:	8b 45 08             	mov    0x8(%ebp),%eax
   103f0:	83 c0 20             	add    $0x20,%eax
   103f3:	6a 00                	push   $0x0
   103f5:	52                   	push   %edx
   103f6:	ff 75 0c             	pushl  0xc(%ebp)
   103f9:	50                   	push   %eax
   103fa:	e8 1f 81 00 00       	call   1851e <bitmap_init>
   103ff:	83 c4 10             	add    $0x10,%esp
}
   10402:	90                   	nop
   10403:	c9                   	leave  
   10404:	c3                   	ret    

00010405 <addr_alloc_page>:
static uint32_t addr_alloc_page(addr_alloc_t* alloc, int page_count){
   10405:	55                   	push   %ebp
   10406:	89 e5                	mov    %esp,%ebp
   10408:	83 ec 18             	sub    $0x18,%esp
    uint32_t addr = 0;
   1040b:	c7 45 f4 00 00 00 00 	movl   $0x0,-0xc(%ebp)
    mutex_lock(&alloc->mutex);
   10412:	8b 45 08             	mov    0x8(%ebp),%eax
   10415:	83 ec 0c             	sub    $0xc,%esp
   10418:	50                   	push   %eax
   10419:	e8 66 7e 00 00       	call   18284 <mutex_lock>
   1041e:	83 c4 10             	add    $0x10,%esp
    int page_index = bitmap_alloc_nbit(&alloc->bitmap, page_count, 0);
   10421:	8b 45 08             	mov    0x8(%ebp),%eax
   10424:	83 c0 20             	add    $0x20,%eax
   10427:	83 ec 04             	sub    $0x4,%esp
   1042a:	6a 00                	push   $0x0
   1042c:	ff 75 0c             	pushl  0xc(%ebp)
   1042f:	50                   	push   %eax
   10430:	e8 82 82 00 00       	call   186b7 <bitmap_alloc_nbit>
   10435:	83 c4 10             	add    $0x10,%esp
   10438:	89 45 f0             	mov    %eax,-0x10(%ebp)
    if(page_index != -1)
   1043b:	83 7d f0 ff          	cmpl   $0xffffffff,-0x10(%ebp)
   1043f:	74 17                	je     10458 <addr_alloc_page+0x53>
        addr = alloc->start + page_index * alloc->page_size;
   10441:	8b 45 08             	mov    0x8(%ebp),%eax
   10444:	8b 50 14             	mov    0x14(%eax),%edx
   10447:	8b 45 08             	mov    0x8(%ebp),%eax
   1044a:	8b 48 1c             	mov    0x1c(%eax),%ecx
   1044d:	8b 45 f0             	mov    -0x10(%ebp),%eax
   10450:	0f af c1             	imul   %ecx,%eax
   10453:	01 d0                	add    %edx,%eax
   10455:	89 45 f4             	mov    %eax,-0xc(%ebp)
    
    mutex_unlock(&alloc->mutex);
   10458:	8b 45 08             	mov    0x8(%ebp),%eax
   1045b:	83 ec 0c             	sub    $0xc,%esp
   1045e:	50                   	push   %eax
   1045f:	e8 b6 7e 00 00       	call   1831a <mutex_unlock>
   10464:	83 c4 10             	add    $0x10,%esp
    return addr;
   10467:	8b 45 f4             	mov    -0xc(%ebp),%eax
    
}
   1046a:	c9                   	leave  
   1046b:	c3                   	ret    

0001046c <addr_free_page>:

static void addr_free_page(addr_alloc_t* alloc, uint32_t addr, int page_count)
{
   1046c:	55                   	push   %ebp
   1046d:	89 e5                	mov    %esp,%ebp
   1046f:	53                   	push   %ebx
   10470:	83 ec 04             	sub    $0x4,%esp
    mutex_lock(&alloc->mutex);
   10473:	8b 45 08             	mov    0x8(%ebp),%eax
   10476:	83 ec 0c             	sub    $0xc,%esp
   10479:	50                   	push   %eax
   1047a:	e8 05 7e 00 00       	call   18284 <mutex_lock>
   1047f:	83 c4 10             	add    $0x10,%esp
    bitmap_set_nbit(&alloc->bitmap, (addr - alloc->start)/alloc->page_size, page_count, 0);
   10482:	8b 45 08             	mov    0x8(%ebp),%eax
   10485:	8b 40 14             	mov    0x14(%eax),%eax
   10488:	8b 55 0c             	mov    0xc(%ebp),%edx
   1048b:	89 d1                	mov    %edx,%ecx
   1048d:	29 c1                	sub    %eax,%ecx
   1048f:	8b 45 08             	mov    0x8(%ebp),%eax
   10492:	8b 58 1c             	mov    0x1c(%eax),%ebx
   10495:	89 c8                	mov    %ecx,%eax
   10497:	ba 00 00 00 00       	mov    $0x0,%edx
   1049c:	f7 f3                	div    %ebx
   1049e:	89 c2                	mov    %eax,%edx
   104a0:	8b 45 08             	mov    0x8(%ebp),%eax
   104a3:	83 c0 20             	add    $0x20,%eax
   104a6:	6a 00                	push   $0x0
   104a8:	ff 75 10             	pushl  0x10(%ebp)
   104ab:	52                   	push   %edx
   104ac:	50                   	push   %eax
   104ad:	e8 16 81 00 00       	call   185c8 <bitmap_set_nbit>
   104b2:	83 c4 10             	add    $0x10,%esp
    mutex_unlock(&alloc->mutex);
   104b5:	8b 45 08             	mov    0x8(%ebp),%eax
   104b8:	83 ec 0c             	sub    $0xc,%esp
   104bb:	50                   	push   %eax
   104bc:	e8 59 7e 00 00       	call   1831a <mutex_unlock>
   104c1:	83 c4 10             	add    $0x10,%esp
}
   104c4:	90                   	nop
   104c5:	8b 5d fc             	mov    -0x4(%ebp),%ebx
   104c8:	c9                   	leave  
   104c9:	c3                   	ret    

000104ca <show_mem_info>:
static void show_mem_info (boot_info_t * boot_info) {
   104ca:	55                   	push   %ebp
   104cb:	89 e5                	mov    %esp,%ebp
   104cd:	83 ec 18             	sub    $0x18,%esp
    log_printf("mem region:");
   104d0:	83 ec 0c             	sub    $0xc,%esp
   104d3:	68 20 90 01 00       	push   $0x19020
   104d8:	e8 6f 8a 00 00       	call   18f4c <log_printf>
   104dd:	83 c4 10             	add    $0x10,%esp
    for (int i = 0; i < boot_info->ram_region_count; i++) {
   104e0:	c7 45 f4 00 00 00 00 	movl   $0x0,-0xc(%ebp)
   104e7:	eb 29                	jmp    10512 <show_mem_info+0x48>
        log_printf("[%d]: 0x%x - 0x%x", i, 
   104e9:	8b 45 08             	mov    0x8(%ebp),%eax
   104ec:	8b 55 f4             	mov    -0xc(%ebp),%edx
   104ef:	8b 54 d0 04          	mov    0x4(%eax,%edx,8),%edx
   104f3:	8b 45 08             	mov    0x8(%ebp),%eax
   104f6:	8b 4d f4             	mov    -0xc(%ebp),%ecx
   104f9:	8b 04 c8             	mov    (%eax,%ecx,8),%eax
   104fc:	52                   	push   %edx
   104fd:	50                   	push   %eax
   104fe:	ff 75 f4             	pushl  -0xc(%ebp)
   10501:	68 2c 90 01 00       	push   $0x1902c
   10506:	e8 41 8a 00 00       	call   18f4c <log_printf>
   1050b:	83 c4 10             	add    $0x10,%esp
    for (int i = 0; i < boot_info->ram_region_count; i++) {
   1050e:	83 45 f4 01          	addl   $0x1,-0xc(%ebp)
   10512:	8b 45 08             	mov    0x8(%ebp),%eax
   10515:	8b 40 50             	mov    0x50(%eax),%eax
   10518:	39 45 f4             	cmp    %eax,-0xc(%ebp)
   1051b:	7c cc                	jl     104e9 <show_mem_info+0x1f>
                    boot_info->ram_region_cfg[i].start,
                    boot_info->ram_region_cfg[i].size);
    }
    log_printf("\n");
   1051d:	83 ec 0c             	sub    $0xc,%esp
   10520:	68 3e 90 01 00       	push   $0x1903e
   10525:	e8 22 8a 00 00       	call   18f4c <log_printf>
   1052a:	83 c4 10             	add    $0x10,%esp
}
   1052d:	90                   	nop
   1052e:	c9                   	leave  
   1052f:	c3                   	ret    

00010530 <total_mem_size>:
static uint32_t total_mem_size(boot_info_t * boot_info) {
   10530:	55                   	push   %ebp
   10531:	89 e5                	mov    %esp,%ebp
   10533:	83 ec 10             	sub    $0x10,%esp
    int mem_size = 0;
   10536:	c7 45 fc 00 00 00 00 	movl   $0x0,-0x4(%ebp)

    // 简单起见，暂不考虑中间有空洞的情况
    for (int i = 0; i < boot_info->ram_region_count; i++) {
   1053d:	c7 45 f8 00 00 00 00 	movl   $0x0,-0x8(%ebp)
   10544:	eb 16                	jmp    1055c <total_mem_size+0x2c>
        mem_size += boot_info->ram_region_cfg[i].size;
   10546:	8b 45 08             	mov    0x8(%ebp),%eax
   10549:	8b 55 f8             	mov    -0x8(%ebp),%edx
   1054c:	8b 54 d0 04          	mov    0x4(%eax,%edx,8),%edx
   10550:	8b 45 fc             	mov    -0x4(%ebp),%eax
   10553:	01 d0                	add    %edx,%eax
   10555:	89 45 fc             	mov    %eax,-0x4(%ebp)
    for (int i = 0; i < boot_info->ram_region_count; i++) {
   10558:	83 45 f8 01          	addl   $0x1,-0x8(%ebp)
   1055c:	8b 45 08             	mov    0x8(%ebp),%eax
   1055f:	8b 40 50             	mov    0x50(%eax),%eax
   10562:	39 45 f8             	cmp    %eax,-0x8(%ebp)
   10565:	7c df                	jl     10546 <total_mem_size+0x16>
    }
    return mem_size;
   10567:	8b 45 fc             	mov    -0x4(%ebp),%eax
}
   1056a:	c9                   	leave  
   1056b:	c3                   	ret    

0001056c <find_pte>:

pte_t* find_pte(pde_t* page_dir, uint32_t vstart, int alloc)
{
   1056c:	55                   	push   %ebp
   1056d:	89 e5                	mov    %esp,%ebp
   1056f:	83 ec 18             	sub    $0x18,%esp
    pte_t * page_table;

    pde_t *pde = page_dir + pde_index(vstart);
   10572:	ff 75 0c             	pushl  0xc(%ebp)
   10575:	e8 bb fd ff ff       	call   10335 <pde_index>
   1057a:	83 c4 04             	add    $0x4,%esp
   1057d:	8d 14 85 00 00 00 00 	lea    0x0(,%eax,4),%edx
   10584:	8b 45 08             	mov    0x8(%ebp),%eax
   10587:	01 d0                	add    %edx,%eax
   10589:	89 45 f0             	mov    %eax,-0x10(%ebp)
    if (pde->present) {
   1058c:	8b 45 f0             	mov    -0x10(%ebp),%eax
   1058f:	0f b6 00             	movzbl (%eax),%eax
   10592:	83 e0 01             	and    $0x1,%eax
   10595:	84 c0                	test   %al,%al
   10597:	74 10                	je     105a9 <find_pte+0x3d>
        page_table = (pte_t *)pde_paddr(pde);
   10599:	ff 75 f0             	pushl  -0x10(%ebp)
   1059c:	e8 af fd ff ff       	call   10350 <pde_paddr>
   105a1:	83 c4 04             	add    $0x4,%esp
   105a4:	89 45 f4             	mov    %eax,-0xc(%ebp)
   105a7:	eb 57                	jmp    10600 <find_pte+0x94>
    } else {
        // 如果不存在，则考虑分配一个
        if (alloc == 0) {
   105a9:	83 7d 10 00          	cmpl   $0x0,0x10(%ebp)
   105ad:	75 07                	jne    105b6 <find_pte+0x4a>
            return (pte_t *)0;
   105af:	b8 00 00 00 00       	mov    $0x0,%eax
   105b4:	eb 64                	jmp    1061a <find_pte+0xae>
        }

        // 分配一个物理页表
        uint32_t pg_paddr = addr_alloc_page(&paddr_alloc, 1);
   105b6:	83 ec 08             	sub    $0x8,%esp
   105b9:	6a 01                	push   $0x1
   105bb:	68 00 c0 01 00       	push   $0x1c000
   105c0:	e8 40 fe ff ff       	call   10405 <addr_alloc_page>
   105c5:	83 c4 10             	add    $0x10,%esp
   105c8:	89 45 ec             	mov    %eax,-0x14(%ebp)
        if (pg_paddr == 0) {
   105cb:	83 7d ec 00          	cmpl   $0x0,-0x14(%ebp)
   105cf:	75 07                	jne    105d8 <find_pte+0x6c>
            return (pte_t *)0;
   105d1:	b8 00 00 00 00       	mov    $0x0,%eax
   105d6:	eb 42                	jmp    1061a <find_pte+0xae>
        }

        // 设置为用户可读写，将被pte中设置所覆盖
        pde->v = pg_paddr | PDE_P | PDE_W | PDE_U;
   105d8:	8b 45 ec             	mov    -0x14(%ebp),%eax
   105db:	83 c8 07             	or     $0x7,%eax
   105de:	89 c2                	mov    %eax,%edx
   105e0:	8b 45 f0             	mov    -0x10(%ebp),%eax
   105e3:	89 10                	mov    %edx,(%eax)
        // 为物理页表绑定虚拟地址的映射，这样下面就可以计算出虚拟地址了
        //kernel_pg_last[pde_index(vaddr)].v = pg_paddr | PTE_P | PTE_W;

        // 清空页表，防止出现异常
        // 这里虚拟地址和物理地址一一映射，所以直接写入
        page_table = (pte_t *)(pg_paddr);
   105e5:	8b 45 ec             	mov    -0x14(%ebp),%eax
   105e8:	89 45 f4             	mov    %eax,-0xc(%ebp)
        kernel_memset(page_table, 0, MEM_PAGE_SIZE);
   105eb:	83 ec 04             	sub    $0x4,%esp
   105ee:	68 00 10 00 00       	push   $0x1000
   105f3:	6a 00                	push   $0x0
   105f5:	ff 75 f4             	pushl  -0xc(%ebp)
   105f8:	e8 a5 83 00 00       	call   189a2 <kernel_memset>
   105fd:	83 c4 10             	add    $0x10,%esp
    }

    return page_table + pte_index(vstart);
   10600:	83 ec 0c             	sub    $0xc,%esp
   10603:	ff 75 0c             	pushl  0xc(%ebp)
   10606:	e8 35 fd ff ff       	call   10340 <pte_index>
   1060b:	83 c4 10             	add    $0x10,%esp
   1060e:	8d 14 85 00 00 00 00 	lea    0x0(,%eax,4),%edx
   10615:	8b 45 f4             	mov    -0xc(%ebp),%eax
   10618:	01 d0                	add    %edx,%eax
}
   1061a:	c9                   	leave  
   1061b:	c3                   	ret    

0001061c <memory_create_map>:

int memory_create_map(pde_t* page_dir, uint32_t vstart, uint32_t pstart, uint32_t count, uint32_t perm)
{
   1061c:	55                   	push   %ebp
   1061d:	89 e5                	mov    %esp,%ebp
   1061f:	83 ec 18             	sub    $0x18,%esp
    
    for (int i = 0; i < count; i++) {
   10622:	c7 45 f4 00 00 00 00 	movl   $0x0,-0xc(%ebp)
   10629:	eb 7b                	jmp    106a6 <memory_create_map+0x8a>
        // log_printf("create map: v-0x%x p-0x%x, perm: 0x%x", vstart, pstart, perm);

        pte_t * pte = find_pte(page_dir, vstart, 1);  //虚拟地址在的二级页表地址
   1062b:	83 ec 04             	sub    $0x4,%esp
   1062e:	6a 01                	push   $0x1
   10630:	ff 75 0c             	pushl  0xc(%ebp)
   10633:	ff 75 08             	pushl  0x8(%ebp)
   10636:	e8 31 ff ff ff       	call   1056c <find_pte>
   1063b:	83 c4 10             	add    $0x10,%esp
   1063e:	89 45 f0             	mov    %eax,-0x10(%ebp)
        if (pte == (pte_t *)0) {
   10641:	83 7d f0 00          	cmpl   $0x0,-0x10(%ebp)
   10645:	75 17                	jne    1065e <memory_create_map+0x42>
            log_printf("create pte failed. pte == 0");
   10647:	83 ec 0c             	sub    $0xc,%esp
   1064a:	68 40 90 01 00       	push   $0x19040
   1064f:	e8 f8 88 00 00       	call   18f4c <log_printf>
   10654:	83 c4 10             	add    $0x10,%esp
            return -1;
   10657:	b8 ff ff ff ff       	mov    $0xffffffff,%eax
   1065c:	eb 59                	jmp    106b7 <memory_create_map+0x9b>
        }

        // 创建映射的时候，这条pte应当是不存在的。
        // 如果存在，说明可能有问题
        // log_printf("\tpte addr: 0x%x", (uint32_t)pte);
        Assert(pte->present == 0);
   1065e:	8b 45 f0             	mov    -0x10(%ebp),%eax
   10661:	0f b6 00             	movzbl (%eax),%eax
   10664:	83 e0 01             	and    $0x1,%eax
   10667:	84 c0                	test   %al,%al
   10669:	74 19                	je     10684 <memory_create_map+0x68>
   1066b:	68 5c 90 01 00       	push   $0x1905c
   10670:	68 64 91 01 00       	push   $0x19164
   10675:	6a 68                	push   $0x68
   10677:	68 70 90 01 00       	push   $0x19070
   1067c:	e8 6e 86 00 00       	call   18cef <pannic>
   10681:	83 c4 10             	add    $0x10,%esp

        pte->v = pstart | perm | PTE_P;
   10684:	8b 45 10             	mov    0x10(%ebp),%eax
   10687:	0b 45 18             	or     0x18(%ebp),%eax
   1068a:	83 c8 01             	or     $0x1,%eax
   1068d:	89 c2                	mov    %eax,%edx
   1068f:	8b 45 f0             	mov    -0x10(%ebp),%eax
   10692:	89 10                	mov    %edx,(%eax)

        vstart += MEM_PAGE_SIZE;
   10694:	81 45 0c 00 10 00 00 	addl   $0x1000,0xc(%ebp)
        pstart += MEM_PAGE_SIZE;
   1069b:	81 45 10 00 10 00 00 	addl   $0x1000,0x10(%ebp)
    for (int i = 0; i < count; i++) {
   106a2:	83 45 f4 01          	addl   $0x1,-0xc(%ebp)
   106a6:	8b 45 f4             	mov    -0xc(%ebp),%eax
   106a9:	39 45 14             	cmp    %eax,0x14(%ebp)
   106ac:	0f 87 79 ff ff ff    	ja     1062b <memory_create_map+0xf>
    }

    return 0;
   106b2:	b8 00 00 00 00       	mov    $0x0,%eax
}
   106b7:	c9                   	leave  
   106b8:	c3                   	ret    

000106b9 <create_kernel_table>:
void create_kernel_table(void){
   106b9:	55                   	push   %ebp
   106ba:	89 e5                	mov    %esp,%ebp
   106bc:	83 ec 28             	sub    $0x28,%esp
        {s_text, e_text, s_text, 0},
        {s_data, (void*)(MEM_EBDA_START - 1), s_data, PTE_W},
        {(void*)CONSOLE_BASE, (void*)CONSOLE_END, (void*)CONSOLE_BASE, PTE_W},
        {(void*)MEM_EXT_START, (void*)MEM_EXT_END, (void*)MEM_EXT_START, PTE_W}
    };
    for(int i = 0; i < sizeof(kernel_map)/sizeof(memory_map_t); ++i){
   106bf:	c7 45 f4 00 00 00 00 	movl   $0x0,-0xc(%ebp)
   106c6:	e9 82 00 00 00       	jmp    1074d <create_kernel_table+0x94>
        memory_map_t* desc = kernel_map + i;
   106cb:	8b 45 f4             	mov    -0xc(%ebp),%eax
   106ce:	c1 e0 04             	shl    $0x4,%eax
   106d1:	05 00 b0 01 00       	add    $0x1b000,%eax
   106d6:	89 45 f0             	mov    %eax,-0x10(%ebp)

        uint32_t vstart = down2((uint32_t)desc -> vstart, MEM_PAGE_SIZE);
   106d9:	8b 45 f0             	mov    -0x10(%ebp),%eax
   106dc:	8b 00                	mov    (%eax),%eax
   106de:	68 00 10 00 00       	push   $0x1000
   106e3:	50                   	push   %eax
   106e4:	e8 2e fc ff ff       	call   10317 <down2>
   106e9:	83 c4 08             	add    $0x8,%esp
   106ec:	89 45 ec             	mov    %eax,-0x14(%ebp)
        uint32_t vend = up2((uint32_t)desc -> vend, MEM_PAGE_SIZE);
   106ef:	8b 45 f0             	mov    -0x10(%ebp),%eax
   106f2:	8b 40 04             	mov    0x4(%eax),%eax
   106f5:	68 00 10 00 00       	push   $0x1000
   106fa:	50                   	push   %eax
   106fb:	e8 00 fc ff ff       	call   10300 <up2>
   10700:	83 c4 08             	add    $0x8,%esp
   10703:	89 45 e8             	mov    %eax,-0x18(%ebp)
        uint32_t pstart = down2((uint32_t)desc -> pstart, MEM_PAGE_SIZE);
   10706:	8b 45 f0             	mov    -0x10(%ebp),%eax
   10709:	8b 40 08             	mov    0x8(%eax),%eax
   1070c:	68 00 10 00 00       	push   $0x1000
   10711:	50                   	push   %eax
   10712:	e8 00 fc ff ff       	call   10317 <down2>
   10717:	83 c4 08             	add    $0x8,%esp
   1071a:	89 45 e4             	mov    %eax,-0x1c(%ebp)
        uint32_t page_count = (vend - vstart) / MEM_PAGE_SIZE;
   1071d:	8b 45 e8             	mov    -0x18(%ebp),%eax
   10720:	2b 45 ec             	sub    -0x14(%ebp),%eax
   10723:	c1 e8 0c             	shr    $0xc,%eax
   10726:	89 45 e0             	mov    %eax,-0x20(%ebp)
        memory_create_map(kernel_page_dir, vstart, pstart, page_count, desc->perm);
   10729:	8b 45 f0             	mov    -0x10(%ebp),%eax
   1072c:	8b 40 0c             	mov    0xc(%eax),%eax
   1072f:	83 ec 0c             	sub    $0xc,%esp
   10732:	50                   	push   %eax
   10733:	ff 75 e0             	pushl  -0x20(%ebp)
   10736:	ff 75 e4             	pushl  -0x1c(%ebp)
   10739:	ff 75 ec             	pushl  -0x14(%ebp)
   1073c:	68 00 d0 01 00       	push   $0x1d000
   10741:	e8 d6 fe ff ff       	call   1061c <memory_create_map>
   10746:	83 c4 20             	add    $0x20,%esp
    for(int i = 0; i < sizeof(kernel_map)/sizeof(memory_map_t); ++i){
   10749:	83 45 f4 01          	addl   $0x1,-0xc(%ebp)
   1074d:	8b 45 f4             	mov    -0xc(%ebp),%eax
   10750:	83 f8 04             	cmp    $0x4,%eax
   10753:	0f 86 72 ff ff ff    	jbe    106cb <create_kernel_table+0x12>
    
    }
}
   10759:	90                   	nop
   1075a:	c9                   	leave  
   1075b:	c3                   	ret    

0001075c <memory_init>:
 * @brief 初始化内存管理系统
 * 该函数的主要任务：
 * 1、初始化物理内存分配器：将所有物理内存管理起来. 在1MB内存中分配物理位图
 * 2、重新创建内核页表：原loader中创建的页表已经不再合适
 */
void memory_init (boot_info_t * boot_info) {
   1075c:	55                   	push   %ebp
   1075d:	89 e5                	mov    %esp,%ebp
   1075f:	83 ec 18             	sub    $0x18,%esp
    // 1MB内存空间起始，在链接脚本中定义
    extern uint8_t * mem_free_start; 

    log_printf("mem init.");
   10762:	83 ec 0c             	sub    $0xc,%esp
   10765:	68 bd 90 01 00       	push   $0x190bd
   1076a:	e8 dd 87 00 00       	call   18f4c <log_printf>
   1076f:	83 c4 10             	add    $0x10,%esp
    show_mem_info(boot_info);
   10772:	83 ec 0c             	sub    $0xc,%esp
   10775:	ff 75 08             	pushl  0x8(%ebp)
   10778:	e8 4d fd ff ff       	call   104ca <show_mem_info>
   1077d:	83 c4 10             	add    $0x10,%esp

    // 在内核数据后面放物理页位图
    uint8_t * mem_free = (uint8_t *)&mem_free_start;   // 2022年-10-1 经同学反馈，发现这里有点bug，改了下
   10780:	c7 45 f4 e7 05 06 00 	movl   $0x605e7,-0xc(%ebp)

    // 计算1MB以上空间的空闲内存容量，并对齐的页边界
    uint32_t mem_up1MB_free = total_mem_size(boot_info) - MEM_EXT_START;
   10787:	83 ec 0c             	sub    $0xc,%esp
   1078a:	ff 75 08             	pushl  0x8(%ebp)
   1078d:	e8 9e fd ff ff       	call   10530 <total_mem_size>
   10792:	83 c4 10             	add    $0x10,%esp
   10795:	2d 00 00 10 00       	sub    $0x100000,%eax
   1079a:	89 45 f0             	mov    %eax,-0x10(%ebp)
    mem_up1MB_free = down2(mem_up1MB_free, MEM_PAGE_SIZE);   // 对齐到4KB页
   1079d:	83 ec 08             	sub    $0x8,%esp
   107a0:	68 00 10 00 00       	push   $0x1000
   107a5:	ff 75 f0             	pushl  -0x10(%ebp)
   107a8:	e8 6a fb ff ff       	call   10317 <down2>
   107ad:	83 c4 10             	add    $0x10,%esp
   107b0:	89 45 f0             	mov    %eax,-0x10(%ebp)
    // log_printf("Free memory: 0x%x, size: 0x%x", MEM_EXT_START, mem_up1MB_free);

    // 4GB大小需要总共4*1024*1024*1024/4096/8=128KB的位图, 使用低1MB的RAM空间中足够
    // 该部分的内存仅跟在mem_free_start开始放置
    addr_alloc_init(&paddr_alloc, mem_free, MEM_EXT_START, mem_up1MB_free, MEM_PAGE_SIZE);
   107b3:	83 ec 0c             	sub    $0xc,%esp
   107b6:	68 00 10 00 00       	push   $0x1000
   107bb:	ff 75 f0             	pushl  -0x10(%ebp)
   107be:	68 00 00 10 00       	push   $0x100000
   107c3:	ff 75 f4             	pushl  -0xc(%ebp)
   107c6:	68 00 c0 01 00       	push   $0x1c000
   107cb:	e8 dd fb ff ff       	call   103ad <addr_alloc_init>
   107d0:	83 c4 20             	add    $0x20,%esp
    mem_free += bit_count(paddr_alloc.size / MEM_PAGE_SIZE);
   107d3:	a1 18 c0 01 00       	mov    0x1c018,%eax
   107d8:	c1 e8 0c             	shr    $0xc,%eax
   107db:	83 ec 0c             	sub    $0xc,%esp
   107de:	50                   	push   %eax
   107df:	e8 90 7d 00 00       	call   18574 <bit_count>
   107e4:	83 c4 10             	add    $0x10,%esp
   107e7:	01 45 f4             	add    %eax,-0xc(%ebp)

    // 到这里，mem_free应该比EBDA地址要小
    Assert(mem_free < (uint8_t *)MEM_EBDA_START);
   107ea:	81 7d f4 ff ff 07 00 	cmpl   $0x7ffff,-0xc(%ebp)
   107f1:	76 1c                	jbe    1080f <memory_init+0xb3>
   107f3:	68 c8 90 01 00       	push   $0x190c8
   107f8:	68 78 91 01 00       	push   $0x19178
   107fd:	68 a1 00 00 00       	push   $0xa1
   10802:	68 70 90 01 00       	push   $0x19070
   10807:	e8 e3 84 00 00       	call   18cef <pannic>
   1080c:	83 c4 10             	add    $0x10,%esp
    create_kernel_table();
   1080f:	e8 a5 fe ff ff       	call   106b9 <create_kernel_table>
    mmu_set_page_dir((uint32_t)kernel_page_dir);
   10814:	b8 00 d0 01 00       	mov    $0x1d000,%eax
   10819:	83 ec 0c             	sub    $0xc,%esp
   1081c:	50                   	push   %eax
   1081d:	e8 02 fb ff ff       	call   10324 <mmu_set_page_dir>
   10822:	83 c4 10             	add    $0x10,%esp
}
   10825:	90                   	nop
   10826:	c9                   	leave  
   10827:	c3                   	ret    

00010828 <memory_create_uvm>:
//这个函数用于将不同进程的前0x80000000的虚拟内存与内核的虚拟内存共享
uint32_t memory_create_uvm()
{
   10828:	55                   	push   %ebp
   10829:	89 e5                	mov    %esp,%ebp
   1082b:	83 ec 18             	sub    $0x18,%esp
    pde_t* page_dir = (pde_t*)addr_alloc_page(&paddr_alloc, 1);
   1082e:	83 ec 08             	sub    $0x8,%esp
   10831:	6a 01                	push   $0x1
   10833:	68 00 c0 01 00       	push   $0x1c000
   10838:	e8 c8 fb ff ff       	call   10405 <addr_alloc_page>
   1083d:	83 c4 10             	add    $0x10,%esp
   10840:	89 45 f0             	mov    %eax,-0x10(%ebp)
    if(page_dir == (pde_t*)0)
   10843:	83 7d f0 00          	cmpl   $0x0,-0x10(%ebp)
   10847:	75 07                	jne    10850 <memory_create_uvm+0x28>
        return 0;
   10849:	b8 00 00 00 00       	mov    $0x0,%eax
   1084e:	eb 5e                	jmp    108ae <memory_create_uvm+0x86>
    kernel_memset((void*)page_dir, 0, MEM_PAGE_SIZE);
   10850:	83 ec 04             	sub    $0x4,%esp
   10853:	68 00 10 00 00       	push   $0x1000
   10858:	6a 00                	push   $0x0
   1085a:	ff 75 f0             	pushl  -0x10(%ebp)
   1085d:	e8 40 81 00 00       	call   189a2 <kernel_memset>
   10862:	83 c4 10             	add    $0x10,%esp
    uint32_t user_pd_index = pde_index(MEMORY_TASK_BASE);
   10865:	83 ec 0c             	sub    $0xc,%esp
   10868:	68 00 00 00 80       	push   $0x80000000
   1086d:	e8 c3 fa ff ff       	call   10335 <pde_index>
   10872:	83 c4 10             	add    $0x10,%esp
   10875:	89 45 ec             	mov    %eax,-0x14(%ebp)
    for(uint32_t i = 0; i < user_pd_index; ++i)
   10878:	c7 45 f4 00 00 00 00 	movl   $0x0,-0xc(%ebp)
   1087f:	eb 22                	jmp    108a3 <memory_create_uvm+0x7b>
    {
        (page_dir + i)->v = (kernel_page_dir + i)->v;
   10881:	8b 45 f4             	mov    -0xc(%ebp),%eax
   10884:	c1 e0 02             	shl    $0x2,%eax
   10887:	05 00 d0 01 00       	add    $0x1d000,%eax
   1088c:	8b 55 f4             	mov    -0xc(%ebp),%edx
   1088f:	8d 0c 95 00 00 00 00 	lea    0x0(,%edx,4),%ecx
   10896:	8b 55 f0             	mov    -0x10(%ebp),%edx
   10899:	01 ca                	add    %ecx,%edx
   1089b:	8b 00                	mov    (%eax),%eax
   1089d:	89 02                	mov    %eax,(%edx)
    for(uint32_t i = 0; i < user_pd_index; ++i)
   1089f:	83 45 f4 01          	addl   $0x1,-0xc(%ebp)
   108a3:	8b 45 f4             	mov    -0xc(%ebp),%eax
   108a6:	3b 45 ec             	cmp    -0x14(%ebp),%eax
   108a9:	72 d6                	jb     10881 <memory_create_uvm+0x59>
    }
    return (uint32_t)page_dir;
   108ab:	8b 45 f0             	mov    -0x10(%ebp),%eax
}
   108ae:	c9                   	leave  
   108af:	c3                   	ret    

000108b0 <memory_alloc_for_page>:
//分配进程使用的虚拟地址
int memory_alloc_for_page(uint32_t addr, uint32_t size, uint32_t perm)
{
   108b0:	55                   	push   %ebp
   108b1:	89 e5                	mov    %esp,%ebp
   108b3:	83 ec 08             	sub    $0x8,%esp
    return memory_alloc_for_page_dir(task_manager.curr_task->tss.cr3, addr, size, perm);
   108b6:	a1 64 fc 05 00       	mov    0x5fc64,%eax
   108bb:	8b 80 78 02 00 00    	mov    0x278(%eax),%eax
   108c1:	ff 75 10             	pushl  0x10(%ebp)
   108c4:	ff 75 0c             	pushl  0xc(%ebp)
   108c7:	ff 75 08             	pushl  0x8(%ebp)
   108ca:	50                   	push   %eax
   108cb:	e8 05 00 00 00       	call   108d5 <memory_alloc_for_page_dir>
   108d0:	83 c4 10             	add    $0x10,%esp
}
   108d3:	c9                   	leave  
   108d4:	c3                   	ret    

000108d5 <memory_alloc_for_page_dir>:

int memory_alloc_for_page_dir(uint32_t page_dir, uint32_t vaddr, uint32_t size, uint32_t perm)
{
   108d5:	55                   	push   %ebp
   108d6:	89 e5                	mov    %esp,%ebp
   108d8:	83 ec 28             	sub    $0x28,%esp
    uint32_t curr_vaddr = vaddr;
   108db:	8b 45 0c             	mov    0xc(%ebp),%eax
   108de:	89 45 f0             	mov    %eax,-0x10(%ebp)
    uint32_t page_count = up2(size, MEM_PAGE_SIZE) / MEM_PAGE_SIZE;
   108e1:	68 00 10 00 00       	push   $0x1000
   108e6:	ff 75 10             	pushl  0x10(%ebp)
   108e9:	e8 12 fa ff ff       	call   10300 <up2>
   108ee:	83 c4 08             	add    $0x8,%esp
   108f1:	c1 e8 0c             	shr    $0xc,%eax
   108f4:	89 45 ec             	mov    %eax,-0x14(%ebp)
    for(int i = 0; i < page_count; ++i){
   108f7:	c7 45 f4 00 00 00 00 	movl   $0x0,-0xc(%ebp)
   108fe:	eb 77                	jmp    10977 <memory_alloc_for_page_dir+0xa2>
        uint32_t paddr = addr_alloc_page(&paddr_alloc, 1);
   10900:	83 ec 08             	sub    $0x8,%esp
   10903:	6a 01                	push   $0x1
   10905:	68 00 c0 01 00       	push   $0x1c000
   1090a:	e8 f6 fa ff ff       	call   10405 <addr_alloc_page>
   1090f:	83 c4 10             	add    $0x10,%esp
   10912:	89 45 e8             	mov    %eax,-0x18(%ebp)
        if(paddr == 0){
   10915:	83 7d e8 00          	cmpl   $0x0,-0x18(%ebp)
   10919:	75 17                	jne    10932 <memory_alloc_for_page_dir+0x5d>
            log_printf("no mem");
   1091b:	83 ec 0c             	sub    $0xc,%esp
   1091e:	68 ed 90 01 00       	push   $0x190ed
   10923:	e8 24 86 00 00       	call   18f4c <log_printf>
   10928:	83 c4 10             	add    $0x10,%esp
            return 0;
   1092b:	b8 00 00 00 00       	mov    $0x0,%eax
   10930:	eb 52                	jmp    10984 <memory_alloc_for_page_dir+0xaf>
        }
        int err = memory_create_map((pde_t*)page_dir, vaddr, paddr, 1, perm);
   10932:	8b 45 08             	mov    0x8(%ebp),%eax
   10935:	83 ec 0c             	sub    $0xc,%esp
   10938:	ff 75 14             	pushl  0x14(%ebp)
   1093b:	6a 01                	push   $0x1
   1093d:	ff 75 e8             	pushl  -0x18(%ebp)
   10940:	ff 75 0c             	pushl  0xc(%ebp)
   10943:	50                   	push   %eax
   10944:	e8 d3 fc ff ff       	call   1061c <memory_create_map>
   10949:	83 c4 20             	add    $0x20,%esp
   1094c:	89 45 e4             	mov    %eax,-0x1c(%ebp)
        if(err < 0){
   1094f:	83 7d e4 00          	cmpl   $0x0,-0x1c(%ebp)
   10953:	79 17                	jns    1096c <memory_alloc_for_page_dir+0x97>
            log_printf("cannot create map");
   10955:	83 ec 0c             	sub    $0xc,%esp
   10958:	68 f4 90 01 00       	push   $0x190f4
   1095d:	e8 ea 85 00 00       	call   18f4c <log_printf>
   10962:	83 c4 10             	add    $0x10,%esp
            // addr_free_page(&paddr, paddr, 1);
            return 0;
   10965:	b8 00 00 00 00       	mov    $0x0,%eax
   1096a:	eb 18                	jmp    10984 <memory_alloc_for_page_dir+0xaf>
        }
        vaddr += MEM_PAGE_SIZE;
   1096c:	81 45 0c 00 10 00 00 	addl   $0x1000,0xc(%ebp)
    for(int i = 0; i < page_count; ++i){
   10973:	83 45 f4 01          	addl   $0x1,-0xc(%ebp)
   10977:	8b 45 f4             	mov    -0xc(%ebp),%eax
   1097a:	39 45 ec             	cmp    %eax,-0x14(%ebp)
   1097d:	77 81                	ja     10900 <memory_alloc_for_page_dir+0x2b>
    } 
    return 0;
   1097f:	b8 00 00 00 00       	mov    $0x0,%eax
}
   10984:	c9                   	leave  
   10985:	c3                   	ret    

00010986 <memory_alloc_page>:
//用于分配0X80000000以下的地址，一一映射。
uint32_t memory_alloc_page(void)
{
   10986:	55                   	push   %ebp
   10987:	89 e5                	mov    %esp,%ebp
   10989:	83 ec 08             	sub    $0x8,%esp
    return addr_alloc_page(&paddr_alloc, 1);
   1098c:	83 ec 08             	sub    $0x8,%esp
   1098f:	6a 01                	push   $0x1
   10991:	68 00 c0 01 00       	push   $0x1c000
   10996:	e8 6a fa ff ff       	call   10405 <addr_alloc_page>
   1099b:	83 c4 10             	add    $0x10,%esp
}
   1099e:	c9                   	leave  
   1099f:	c3                   	ret    

000109a0 <memory_free_page>:

void  memory_free_page(uint32_t addr)
{
   109a0:	55                   	push   %ebp
   109a1:	89 e5                	mov    %esp,%ebp
   109a3:	83 ec 18             	sub    $0x18,%esp
    if(addr < MEMORY_TASK_BASE){
   109a6:	8b 45 08             	mov    0x8(%ebp),%eax
   109a9:	85 c0                	test   %eax,%eax
   109ab:	78 17                	js     109c4 <memory_free_page+0x24>
        addr_free_page(&paddr_alloc, addr, 1);
   109ad:	83 ec 04             	sub    $0x4,%esp
   109b0:	6a 01                	push   $0x1
   109b2:	ff 75 08             	pushl  0x8(%ebp)
   109b5:	68 00 c0 01 00       	push   $0x1c000
   109ba:	e8 ad fa ff ff       	call   1046c <addr_free_page>
   109bf:	83 c4 10             	add    $0x10,%esp
        pte_t* pg_table = find_pte((pde_t*)curr_page_dir(), addr, 0);
        Assert(pg_table != 0 && pg_table->present);
        addr_free_page(&paddr_alloc, pte_paddr(pg_table), 1);
        pg_table->v = 0;
    }
}
   109c2:	eb 72                	jmp    10a36 <memory_free_page+0x96>
        pte_t* pg_table = find_pte((pde_t*)curr_page_dir(), addr, 0);
   109c4:	e8 70 00 00 00       	call   10a39 <curr_page_dir>
   109c9:	83 ec 04             	sub    $0x4,%esp
   109cc:	6a 00                	push   $0x0
   109ce:	ff 75 08             	pushl  0x8(%ebp)
   109d1:	50                   	push   %eax
   109d2:	e8 95 fb ff ff       	call   1056c <find_pte>
   109d7:	83 c4 10             	add    $0x10,%esp
   109da:	89 45 f4             	mov    %eax,-0xc(%ebp)
        Assert(pg_table != 0 && pg_table->present);
   109dd:	83 7d f4 00          	cmpl   $0x0,-0xc(%ebp)
   109e1:	74 0d                	je     109f0 <memory_free_page+0x50>
   109e3:	8b 45 f4             	mov    -0xc(%ebp),%eax
   109e6:	0f b6 00             	movzbl (%eax),%eax
   109e9:	83 e0 01             	and    $0x1,%eax
   109ec:	84 c0                	test   %al,%al
   109ee:	75 1c                	jne    10a0c <memory_free_page+0x6c>
   109f0:	68 08 91 01 00       	push   $0x19108
   109f5:	68 84 91 01 00       	push   $0x19184
   109fa:	68 da 00 00 00       	push   $0xda
   109ff:	68 70 90 01 00       	push   $0x19070
   10a04:	e8 e6 82 00 00       	call   18cef <pannic>
   10a09:	83 c4 10             	add    $0x10,%esp
        addr_free_page(&paddr_alloc, pte_paddr(pg_table), 1);
   10a0c:	83 ec 0c             	sub    $0xc,%esp
   10a0f:	ff 75 f4             	pushl  -0xc(%ebp)
   10a12:	e8 60 f9 ff ff       	call   10377 <pte_paddr>
   10a17:	83 c4 10             	add    $0x10,%esp
   10a1a:	83 ec 04             	sub    $0x4,%esp
   10a1d:	6a 01                	push   $0x1
   10a1f:	50                   	push   %eax
   10a20:	68 00 c0 01 00       	push   $0x1c000
   10a25:	e8 42 fa ff ff       	call   1046c <addr_free_page>
   10a2a:	83 c4 10             	add    $0x10,%esp
        pg_table->v = 0;
   10a2d:	8b 45 f4             	mov    -0xc(%ebp),%eax
   10a30:	c7 00 00 00 00 00    	movl   $0x0,(%eax)
}
   10a36:	90                   	nop
   10a37:	c9                   	leave  
   10a38:	c3                   	ret    

00010a39 <curr_page_dir>:

uint32_t curr_page_dir(void){
   10a39:	55                   	push   %ebp
   10a3a:	89 e5                	mov    %esp,%ebp
    return task_manager.curr_task->tss.cr3;
   10a3c:	a1 64 fc 05 00       	mov    0x5fc64,%eax
   10a41:	8b 80 78 02 00 00    	mov    0x278(%eax),%eax
}
   10a47:	5d                   	pop    %ebp
   10a48:	c3                   	ret    

00010a49 <memory_copy_uvm>:

uint32_t memory_copy_uvm (uint32_t page_dir) {
   10a49:	55                   	push   %ebp
   10a4a:	89 e5                	mov    %esp,%ebp
   10a4c:	83 ec 38             	sub    $0x38,%esp
    uint32_t to_page_dir = memory_create_uvm();
   10a4f:	e8 d4 fd ff ff       	call   10828 <memory_create_uvm>
   10a54:	89 45 e4             	mov    %eax,-0x1c(%ebp)
    if (to_page_dir == 0) {
   10a57:	83 7d e4 00          	cmpl   $0x0,-0x1c(%ebp)
   10a5b:	0f 84 1b 01 00 00    	je     10b7c <memory_copy_uvm+0x133>
        goto copy_uvm_failed;
    }

    uint32_t user_pde_start = pde_index(MEMORY_TASK_BASE);
   10a61:	83 ec 0c             	sub    $0xc,%esp
   10a64:	68 00 00 00 80       	push   $0x80000000
   10a69:	e8 c7 f8 ff ff       	call   10335 <pde_index>
   10a6e:	83 c4 10             	add    $0x10,%esp
   10a71:	89 45 e0             	mov    %eax,-0x20(%ebp)
    pde_t * pde = (pde_t *)page_dir + user_pde_start;
   10a74:	8b 45 e0             	mov    -0x20(%ebp),%eax
   10a77:	8d 14 85 00 00 00 00 	lea    0x0(,%eax,4),%edx
   10a7e:	8b 45 08             	mov    0x8(%ebp),%eax
   10a81:	01 d0                	add    %edx,%eax
   10a83:	89 45 f4             	mov    %eax,-0xc(%ebp)

    for (int i = user_pde_start; i < PDE_CNT; i++, pde++) {
   10a86:	8b 45 e0             	mov    -0x20(%ebp),%eax
   10a89:	89 45 f0             	mov    %eax,-0x10(%ebp)
   10a8c:	e9 d9 00 00 00       	jmp    10b6a <memory_copy_uvm+0x121>
        if (!pde->present) {
   10a91:	8b 45 f4             	mov    -0xc(%ebp),%eax
   10a94:	0f b6 00             	movzbl (%eax),%eax
   10a97:	83 e0 01             	and    $0x1,%eax
   10a9a:	84 c0                	test   %al,%al
   10a9c:	0f 84 bf 00 00 00    	je     10b61 <memory_copy_uvm+0x118>
            continue;
        }

        pte_t * pte = (pte_t *)pde_paddr(pde);
   10aa2:	83 ec 0c             	sub    $0xc,%esp
   10aa5:	ff 75 f4             	pushl  -0xc(%ebp)
   10aa8:	e8 a3 f8 ff ff       	call   10350 <pde_paddr>
   10aad:	83 c4 10             	add    $0x10,%esp
   10ab0:	89 45 ec             	mov    %eax,-0x14(%ebp)
        for (int j = 0; j < PTE_CNT; j++, pte++) {
   10ab3:	c7 45 e8 00 00 00 00 	movl   $0x0,-0x18(%ebp)
   10aba:	e9 93 00 00 00       	jmp    10b52 <memory_copy_uvm+0x109>
            if (!pte->present) {
   10abf:	8b 45 ec             	mov    -0x14(%ebp),%eax
   10ac2:	0f b6 00             	movzbl (%eax),%eax
   10ac5:	83 e0 01             	and    $0x1,%eax
   10ac8:	84 c0                	test   %al,%al
   10aca:	74 7d                	je     10b49 <memory_copy_uvm+0x100>
                continue;
            }

            uint32_t page = addr_alloc_page(&paddr_alloc, 1);
   10acc:	83 ec 08             	sub    $0x8,%esp
   10acf:	6a 01                	push   $0x1
   10ad1:	68 00 c0 01 00       	push   $0x1c000
   10ad6:	e8 2a f9 ff ff       	call   10405 <addr_alloc_page>
   10adb:	83 c4 10             	add    $0x10,%esp
   10ade:	89 45 dc             	mov    %eax,-0x24(%ebp)
            if (page == 0) {
   10ae1:	83 7d dc 00          	cmpl   $0x0,-0x24(%ebp)
   10ae5:	0f 84 94 00 00 00    	je     10b7f <memory_copy_uvm+0x136>
                goto copy_uvm_failed;
            }

            uint32_t vaddr = (i << 22) | (j << 12);
   10aeb:	8b 45 f0             	mov    -0x10(%ebp),%eax
   10aee:	c1 e0 16             	shl    $0x16,%eax
   10af1:	89 c2                	mov    %eax,%edx
   10af3:	8b 45 e8             	mov    -0x18(%ebp),%eax
   10af6:	c1 e0 0c             	shl    $0xc,%eax
   10af9:	09 d0                	or     %edx,%eax
   10afb:	89 45 d8             	mov    %eax,-0x28(%ebp)
            int err = memory_create_map((pde_t *)to_page_dir, vaddr, page, 1, get_pte_perm(pte));
   10afe:	83 ec 0c             	sub    $0xc,%esp
   10b01:	ff 75 ec             	pushl  -0x14(%ebp)
   10b04:	e8 95 f8 ff ff       	call   1039e <get_pte_perm>
   10b09:	83 c4 10             	add    $0x10,%esp
   10b0c:	89 c2                	mov    %eax,%edx
   10b0e:	8b 45 e4             	mov    -0x1c(%ebp),%eax
   10b11:	83 ec 0c             	sub    $0xc,%esp
   10b14:	52                   	push   %edx
   10b15:	6a 01                	push   $0x1
   10b17:	ff 75 dc             	pushl  -0x24(%ebp)
   10b1a:	ff 75 d8             	pushl  -0x28(%ebp)
   10b1d:	50                   	push   %eax
   10b1e:	e8 f9 fa ff ff       	call   1061c <memory_create_map>
   10b23:	83 c4 20             	add    $0x20,%esp
   10b26:	89 45 d4             	mov    %eax,-0x2c(%ebp)
            if (err < 0) {
   10b29:	83 7d d4 00          	cmpl   $0x0,-0x2c(%ebp)
   10b2d:	78 53                	js     10b82 <memory_copy_uvm+0x139>
                goto copy_uvm_failed;
            }

            kernel_memcpy((void *)page, (void *)vaddr, MEM_PAGE_SIZE);
   10b2f:	8b 55 d8             	mov    -0x28(%ebp),%edx
   10b32:	8b 45 dc             	mov    -0x24(%ebp),%eax
   10b35:	83 ec 04             	sub    $0x4,%esp
   10b38:	68 00 10 00 00       	push   $0x1000
   10b3d:	52                   	push   %edx
   10b3e:	50                   	push   %eax
   10b3f:	e8 0f 7e 00 00       	call   18953 <kernel_memcpy>
   10b44:	83 c4 10             	add    $0x10,%esp
   10b47:	eb 01                	jmp    10b4a <memory_copy_uvm+0x101>
                continue;
   10b49:	90                   	nop
        for (int j = 0; j < PTE_CNT; j++, pte++) {
   10b4a:	83 45 e8 01          	addl   $0x1,-0x18(%ebp)
   10b4e:	83 45 ec 04          	addl   $0x4,-0x14(%ebp)
   10b52:	81 7d e8 ff 03 00 00 	cmpl   $0x3ff,-0x18(%ebp)
   10b59:	0f 8e 60 ff ff ff    	jle    10abf <memory_copy_uvm+0x76>
   10b5f:	eb 01                	jmp    10b62 <memory_copy_uvm+0x119>
            continue;
   10b61:	90                   	nop
    for (int i = user_pde_start; i < PDE_CNT; i++, pde++) {
   10b62:	83 45 f0 01          	addl   $0x1,-0x10(%ebp)
   10b66:	83 45 f4 04          	addl   $0x4,-0xc(%ebp)
   10b6a:	81 7d f0 ff 03 00 00 	cmpl   $0x3ff,-0x10(%ebp)
   10b71:	0f 8e 1a ff ff ff    	jle    10a91 <memory_copy_uvm+0x48>
        }
    }
    return to_page_dir;
   10b77:	8b 45 e4             	mov    -0x1c(%ebp),%eax
   10b7a:	eb 20                	jmp    10b9c <memory_copy_uvm+0x153>
        goto copy_uvm_failed;
   10b7c:	90                   	nop
   10b7d:	eb 04                	jmp    10b83 <memory_copy_uvm+0x13a>
                goto copy_uvm_failed;
   10b7f:	90                   	nop
   10b80:	eb 01                	jmp    10b83 <memory_copy_uvm+0x13a>
                goto copy_uvm_failed;
   10b82:	90                   	nop

copy_uvm_failed:
    if (to_page_dir) {
   10b83:	83 7d e4 00          	cmpl   $0x0,-0x1c(%ebp)
   10b87:	74 0e                	je     10b97 <memory_copy_uvm+0x14e>
        memory_destroy_uvm(to_page_dir);
   10b89:	83 ec 0c             	sub    $0xc,%esp
   10b8c:	ff 75 e4             	pushl  -0x1c(%ebp)
   10b8f:	e8 0a 00 00 00       	call   10b9e <memory_destroy_uvm>
   10b94:	83 c4 10             	add    $0x10,%esp
    }
    return -1;
   10b97:	b8 ff ff ff ff       	mov    $0xffffffff,%eax
}
   10b9c:	c9                   	leave  
   10b9d:	c3                   	ret    

00010b9e <memory_destroy_uvm>:

void memory_destroy_uvm(uint32_t page_dir)
{
   10b9e:	55                   	push   %ebp
   10b9f:	89 e5                	mov    %esp,%ebp
   10ba1:	83 ec 28             	sub    $0x28,%esp
    uint32_t to_page_dir = memory_create_uvm();
   10ba4:	e8 7f fc ff ff       	call   10828 <memory_create_uvm>
   10ba9:	89 45 e4             	mov    %eax,-0x1c(%ebp)
    pde_t* pde = (pde_t*)page_dir  + pde_index(MEMORY_TASK_BASE);
   10bac:	83 ec 0c             	sub    $0xc,%esp
   10baf:	68 00 00 00 80       	push   $0x80000000
   10bb4:	e8 7c f7 ff ff       	call   10335 <pde_index>
   10bb9:	83 c4 10             	add    $0x10,%esp
   10bbc:	8d 14 85 00 00 00 00 	lea    0x0(,%eax,4),%edx
   10bc3:	8b 45 08             	mov    0x8(%ebp),%eax
   10bc6:	01 d0                	add    %edx,%eax
   10bc8:	89 45 f4             	mov    %eax,-0xc(%ebp)
    for(int i = pde_index(MEMORY_TASK_BASE); i < PDE_CNT; ++i, ++pde)
   10bcb:	83 ec 0c             	sub    $0xc,%esp
   10bce:	68 00 00 00 80       	push   $0x80000000
   10bd3:	e8 5d f7 ff ff       	call   10335 <pde_index>
   10bd8:	83 c4 10             	add    $0x10,%esp
   10bdb:	89 45 f0             	mov    %eax,-0x10(%ebp)
   10bde:	e9 95 00 00 00       	jmp    10c78 <memory_destroy_uvm+0xda>
    {
        if(!pde -> present)
   10be3:	8b 45 f4             	mov    -0xc(%ebp),%eax
   10be6:	0f b6 00             	movzbl (%eax),%eax
   10be9:	83 e0 01             	and    $0x1,%eax
   10bec:	84 c0                	test   %al,%al
   10bee:	74 7f                	je     10c6f <memory_destroy_uvm+0xd1>
            continue;
        pte_t* pte = (pte_t*)pde_paddr(pde);
   10bf0:	83 ec 0c             	sub    $0xc,%esp
   10bf3:	ff 75 f4             	pushl  -0xc(%ebp)
   10bf6:	e8 55 f7 ff ff       	call   10350 <pde_paddr>
   10bfb:	83 c4 10             	add    $0x10,%esp
   10bfe:	89 45 ec             	mov    %eax,-0x14(%ebp)
        for(int j = 0; j < PTE_CNT; ++j, ++pte)
   10c01:	c7 45 e8 00 00 00 00 	movl   $0x0,-0x18(%ebp)
   10c08:	eb 39                	jmp    10c43 <memory_destroy_uvm+0xa5>
        {
            if(!pte -> present)
   10c0a:	8b 45 ec             	mov    -0x14(%ebp),%eax
   10c0d:	0f b6 00             	movzbl (%eax),%eax
   10c10:	83 e0 01             	and    $0x1,%eax
   10c13:	84 c0                	test   %al,%al
   10c15:	74 23                	je     10c3a <memory_destroy_uvm+0x9c>
                continue;
            addr_free_page(&paddr_alloc, (uint32_t)pte_paddr(pte), 1);
   10c17:	83 ec 0c             	sub    $0xc,%esp
   10c1a:	ff 75 ec             	pushl  -0x14(%ebp)
   10c1d:	e8 55 f7 ff ff       	call   10377 <pte_paddr>
   10c22:	83 c4 10             	add    $0x10,%esp
   10c25:	83 ec 04             	sub    $0x4,%esp
   10c28:	6a 01                	push   $0x1
   10c2a:	50                   	push   %eax
   10c2b:	68 00 c0 01 00       	push   $0x1c000
   10c30:	e8 37 f8 ff ff       	call   1046c <addr_free_page>
   10c35:	83 c4 10             	add    $0x10,%esp
   10c38:	eb 01                	jmp    10c3b <memory_destroy_uvm+0x9d>
                continue;
   10c3a:	90                   	nop
        for(int j = 0; j < PTE_CNT; ++j, ++pte)
   10c3b:	83 45 e8 01          	addl   $0x1,-0x18(%ebp)
   10c3f:	83 45 ec 04          	addl   $0x4,-0x14(%ebp)
   10c43:	81 7d e8 ff 03 00 00 	cmpl   $0x3ff,-0x18(%ebp)
   10c4a:	7e be                	jle    10c0a <memory_destroy_uvm+0x6c>
        }
        addr_free_page(&paddr_alloc, (uint32_t)pde_paddr(pde), 1);
   10c4c:	83 ec 0c             	sub    $0xc,%esp
   10c4f:	ff 75 f4             	pushl  -0xc(%ebp)
   10c52:	e8 f9 f6 ff ff       	call   10350 <pde_paddr>
   10c57:	83 c4 10             	add    $0x10,%esp
   10c5a:	83 ec 04             	sub    $0x4,%esp
   10c5d:	6a 01                	push   $0x1
   10c5f:	50                   	push   %eax
   10c60:	68 00 c0 01 00       	push   $0x1c000
   10c65:	e8 02 f8 ff ff       	call   1046c <addr_free_page>
   10c6a:	83 c4 10             	add    $0x10,%esp
   10c6d:	eb 01                	jmp    10c70 <memory_destroy_uvm+0xd2>
            continue;
   10c6f:	90                   	nop
    for(int i = pde_index(MEMORY_TASK_BASE); i < PDE_CNT; ++i, ++pde)
   10c70:	83 45 f0 01          	addl   $0x1,-0x10(%ebp)
   10c74:	83 45 f4 04          	addl   $0x4,-0xc(%ebp)
   10c78:	81 7d f0 ff 03 00 00 	cmpl   $0x3ff,-0x10(%ebp)
   10c7f:	0f 8e 5e ff ff ff    	jle    10be3 <memory_destroy_uvm+0x45>
    }
    addr_free_page(&paddr_alloc, page_dir, 1);
   10c85:	83 ec 04             	sub    $0x4,%esp
   10c88:	6a 01                	push   $0x1
   10c8a:	ff 75 08             	pushl  0x8(%ebp)
   10c8d:	68 00 c0 01 00       	push   $0x1c000
   10c92:	e8 d5 f7 ff ff       	call   1046c <addr_free_page>
   10c97:	83 c4 10             	add    $0x10,%esp
}
   10c9a:	90                   	nop
   10c9b:	c9                   	leave  
   10c9c:	c3                   	ret    

00010c9d <memory_get_paddr>:

uint32_t memory_get_paddr(uint32_t page_dir, uint32_t vaddr)
{
   10c9d:	55                   	push   %ebp
   10c9e:	89 e5                	mov    %esp,%ebp
   10ca0:	83 ec 18             	sub    $0x18,%esp
    pte_t* pte = find_pte((pde_t*)page_dir, vaddr, 0);
   10ca3:	8b 45 08             	mov    0x8(%ebp),%eax
   10ca6:	83 ec 04             	sub    $0x4,%esp
   10ca9:	6a 00                	push   $0x0
   10cab:	ff 75 0c             	pushl  0xc(%ebp)
   10cae:	50                   	push   %eax
   10caf:	e8 b8 f8 ff ff       	call   1056c <find_pte>
   10cb4:	83 c4 10             	add    $0x10,%esp
   10cb7:	89 45 f4             	mov    %eax,-0xc(%ebp)
    if (pte == (pte_t *)0) {
   10cba:	83 7d f4 00          	cmpl   $0x0,-0xc(%ebp)
   10cbe:	75 07                	jne    10cc7 <memory_get_paddr+0x2a>
        return 0;
   10cc0:	b8 00 00 00 00       	mov    $0x0,%eax
   10cc5:	eb 1a                	jmp    10ce1 <memory_get_paddr+0x44>
    }
    return (pte_paddr(pte) + (vaddr & (MEM_PAGE_SIZE - 1)));
   10cc7:	83 ec 0c             	sub    $0xc,%esp
   10cca:	ff 75 f4             	pushl  -0xc(%ebp)
   10ccd:	e8 a5 f6 ff ff       	call   10377 <pte_paddr>
   10cd2:	83 c4 10             	add    $0x10,%esp
   10cd5:	89 c2                	mov    %eax,%edx
   10cd7:	8b 45 0c             	mov    0xc(%ebp),%eax
   10cda:	25 ff 0f 00 00       	and    $0xfff,%eax
   10cdf:	01 d0                	add    %edx,%eax
}
   10ce1:	c9                   	leave  
   10ce2:	c3                   	ret    

00010ce3 <memory_copy_uvm_data>:

int memory_copy_uvm_data(uint32_t to, uint32_t page_dir, uint32_t from, uint32_t size)
{
   10ce3:	55                   	push   %ebp
   10ce4:	89 e5                	mov    %esp,%ebp
   10ce6:	83 ec 18             	sub    $0x18,%esp
    
    while(size > 0)
   10ce9:	eb 6e                	jmp    10d59 <memory_copy_uvm_data+0x76>
    {
        uint32_t paddr = memory_get_paddr(page_dir, to);
   10ceb:	83 ec 08             	sub    $0x8,%esp
   10cee:	ff 75 08             	pushl  0x8(%ebp)
   10cf1:	ff 75 0c             	pushl  0xc(%ebp)
   10cf4:	e8 a4 ff ff ff       	call   10c9d <memory_get_paddr>
   10cf9:	83 c4 10             	add    $0x10,%esp
   10cfc:	89 45 f0             	mov    %eax,-0x10(%ebp)
        if(paddr == 0) 
   10cff:	83 7d f0 00          	cmpl   $0x0,-0x10(%ebp)
   10d03:	75 07                	jne    10d0c <memory_copy_uvm_data+0x29>
            return -1;
   10d05:	b8 ff ff ff ff       	mov    $0xffffffff,%eax
   10d0a:	eb 58                	jmp    10d64 <memory_copy_uvm_data+0x81>
        uint32_t offset_in_page = paddr & (MEM_PAGE_SIZE - 1);
   10d0c:	8b 45 f0             	mov    -0x10(%ebp),%eax
   10d0f:	25 ff 0f 00 00       	and    $0xfff,%eax
   10d14:	89 45 ec             	mov    %eax,-0x14(%ebp)
        uint32_t curr_size = MEM_PAGE_SIZE - offset_in_page;
   10d17:	b8 00 10 00 00       	mov    $0x1000,%eax
   10d1c:	2b 45 ec             	sub    -0x14(%ebp),%eax
   10d1f:	89 45 f4             	mov    %eax,-0xc(%ebp)
        if(curr_size > size)
   10d22:	8b 45 f4             	mov    -0xc(%ebp),%eax
   10d25:	3b 45 14             	cmp    0x14(%ebp),%eax
   10d28:	76 06                	jbe    10d30 <memory_copy_uvm_data+0x4d>
            curr_size = size;
   10d2a:	8b 45 14             	mov    0x14(%ebp),%eax
   10d2d:	89 45 f4             	mov    %eax,-0xc(%ebp)
        kernel_memcpy((void*)paddr, (void*)from, curr_size);
   10d30:	8b 4d f4             	mov    -0xc(%ebp),%ecx
   10d33:	8b 55 10             	mov    0x10(%ebp),%edx
   10d36:	8b 45 f0             	mov    -0x10(%ebp),%eax
   10d39:	83 ec 04             	sub    $0x4,%esp
   10d3c:	51                   	push   %ecx
   10d3d:	52                   	push   %edx
   10d3e:	50                   	push   %eax
   10d3f:	e8 0f 7c 00 00       	call   18953 <kernel_memcpy>
   10d44:	83 c4 10             	add    $0x10,%esp
        size -= curr_size;
   10d47:	8b 45 f4             	mov    -0xc(%ebp),%eax
   10d4a:	29 45 14             	sub    %eax,0x14(%ebp)
        to += curr_size;
   10d4d:	8b 45 f4             	mov    -0xc(%ebp),%eax
   10d50:	01 45 08             	add    %eax,0x8(%ebp)
        from += curr_size;
   10d53:	8b 45 f4             	mov    -0xc(%ebp),%eax
   10d56:	01 45 10             	add    %eax,0x10(%ebp)
    while(size > 0)
   10d59:	83 7d 14 00          	cmpl   $0x0,0x14(%ebp)
   10d5d:	75 8c                	jne    10ceb <memory_copy_uvm_data+0x8>
    }
    return 0;
   10d5f:	b8 00 00 00 00       	mov    $0x0,%eax
}
   10d64:	c9                   	leave  
   10d65:	c3                   	ret    

00010d66 <sys_sbrk>:

char * sys_sbrk(int incr) {
   10d66:	55                   	push   %ebp
   10d67:	89 e5                	mov    %esp,%ebp
   10d69:	83 ec 38             	sub    $0x38,%esp
    task_t * task = task_manager.curr_task;
   10d6c:	a1 64 fc 05 00       	mov    0x5fc64,%eax
   10d71:	89 45 f0             	mov    %eax,-0x10(%ebp)
    char * pre_heap_end = (char * )task->heap_end;
   10d74:	8b 45 f0             	mov    -0x10(%ebp),%eax
   10d77:	8b 40 0c             	mov    0xc(%eax),%eax
   10d7a:	89 45 ec             	mov    %eax,-0x14(%ebp)
    int pre_incr = incr;
   10d7d:	8b 45 08             	mov    0x8(%ebp),%eax
   10d80:	89 45 e8             	mov    %eax,-0x18(%ebp)

    Assert(incr >= 0);
   10d83:	83 7d 08 00          	cmpl   $0x0,0x8(%ebp)
   10d87:	79 1c                	jns    10da5 <sys_sbrk+0x3f>
   10d89:	68 2b 91 01 00       	push   $0x1912b
   10d8e:	68 98 91 01 00       	push   $0x19198
   10d93:	68 45 01 00 00       	push   $0x145
   10d98:	68 70 90 01 00       	push   $0x19070
   10d9d:	e8 4d 7f 00 00       	call   18cef <pannic>
   10da2:	83 c4 10             	add    $0x10,%esp

    if (incr == 0) {
   10da5:	83 7d 08 00          	cmpl   $0x0,0x8(%ebp)
   10da9:	75 1b                	jne    10dc6 <sys_sbrk+0x60>
        log_printf("sbrk(0): end = 0x%x", pre_heap_end);
   10dab:	83 ec 08             	sub    $0x8,%esp
   10dae:	ff 75 ec             	pushl  -0x14(%ebp)
   10db1:	68 35 91 01 00       	push   $0x19135
   10db6:	e8 91 81 00 00       	call   18f4c <log_printf>
   10dbb:	83 c4 10             	add    $0x10,%esp
        return pre_heap_end;
   10dbe:	8b 45 ec             	mov    -0x14(%ebp),%eax
   10dc1:	e9 aa 00 00 00       	jmp    10e70 <sys_sbrk+0x10a>
    } 
    
    uint32_t start = task->heap_end;
   10dc6:	8b 45 f0             	mov    -0x10(%ebp),%eax
   10dc9:	8b 40 0c             	mov    0xc(%eax),%eax
   10dcc:	89 45 f4             	mov    %eax,-0xc(%ebp)
    uint32_t end = start + incr;
   10dcf:	8b 55 08             	mov    0x8(%ebp),%edx
   10dd2:	8b 45 f4             	mov    -0xc(%ebp),%eax
   10dd5:	01 d0                	add    %edx,%eax
   10dd7:	89 45 e4             	mov    %eax,-0x1c(%ebp)

    int start_offset = start % MEM_PAGE_SIZE;
   10dda:	8b 45 f4             	mov    -0xc(%ebp),%eax
   10ddd:	25 ff 0f 00 00       	and    $0xfff,%eax
   10de2:	89 45 e0             	mov    %eax,-0x20(%ebp)
    if (start_offset) {
   10de5:	83 7d e0 00          	cmpl   $0x0,-0x20(%ebp)
   10de9:	74 37                	je     10e22 <sys_sbrk+0xbc>

        if (start_offset + incr <= MEM_PAGE_SIZE) {
   10deb:	8b 55 e0             	mov    -0x20(%ebp),%edx
   10dee:	8b 45 08             	mov    0x8(%ebp),%eax
   10df1:	01 d0                	add    %edx,%eax
   10df3:	3d 00 10 00 00       	cmp    $0x1000,%eax
   10df8:	7f 0e                	jg     10e08 <sys_sbrk+0xa2>
            task->heap_end = end;
   10dfa:	8b 45 f0             	mov    -0x10(%ebp),%eax
   10dfd:	8b 55 e4             	mov    -0x1c(%ebp),%edx
   10e00:	89 50 0c             	mov    %edx,0xc(%eax)
            return pre_heap_end;
   10e03:	8b 45 ec             	mov    -0x14(%ebp),%eax
   10e06:	eb 68                	jmp    10e70 <sys_sbrk+0x10a>
        } else {

            uint32_t curr_size = MEM_PAGE_SIZE - start_offset;
   10e08:	b8 00 10 00 00       	mov    $0x1000,%eax
   10e0d:	2b 45 e0             	sub    -0x20(%ebp),%eax
   10e10:	89 45 dc             	mov    %eax,-0x24(%ebp)
            start += curr_size;
   10e13:	8b 45 dc             	mov    -0x24(%ebp),%eax
   10e16:	01 45 f4             	add    %eax,-0xc(%ebp)
            incr -= curr_size;
   10e19:	8b 45 08             	mov    0x8(%ebp),%eax
   10e1c:	2b 45 dc             	sub    -0x24(%ebp),%eax
   10e1f:	89 45 08             	mov    %eax,0x8(%ebp)
        }
    }

    if (incr) {
   10e22:	83 7d 08 00          	cmpl   $0x0,0x8(%ebp)
   10e26:	74 3c                	je     10e64 <sys_sbrk+0xfe>
        uint32_t curr_size = end - start;
   10e28:	8b 45 e4             	mov    -0x1c(%ebp),%eax
   10e2b:	2b 45 f4             	sub    -0xc(%ebp),%eax
   10e2e:	89 45 d8             	mov    %eax,-0x28(%ebp)
        int err = memory_alloc_for_page (start, curr_size, PTE_P | PTE_U | PTE_W);
   10e31:	83 ec 04             	sub    $0x4,%esp
   10e34:	6a 07                	push   $0x7
   10e36:	ff 75 d8             	pushl  -0x28(%ebp)
   10e39:	ff 75 f4             	pushl  -0xc(%ebp)
   10e3c:	e8 6f fa ff ff       	call   108b0 <memory_alloc_for_page>
   10e41:	83 c4 10             	add    $0x10,%esp
   10e44:	89 45 d4             	mov    %eax,-0x2c(%ebp)
        if (err < 0) {
   10e47:	83 7d d4 00          	cmpl   $0x0,-0x2c(%ebp)
   10e4b:	79 17                	jns    10e64 <sys_sbrk+0xfe>
            log_printf("sbrk: alloc mem failed.");
   10e4d:	83 ec 0c             	sub    $0xc,%esp
   10e50:	68 49 91 01 00       	push   $0x19149
   10e55:	e8 f2 80 00 00       	call   18f4c <log_printf>
   10e5a:	83 c4 10             	add    $0x10,%esp
            return (char *)-1;
   10e5d:	b8 ff ff ff ff       	mov    $0xffffffff,%eax
   10e62:	eb 0c                	jmp    10e70 <sys_sbrk+0x10a>
        }
    }

    // log_printf("sbrk(%d): end = 0x%x", pre_incr, end);
    task->heap_end = end;
   10e64:	8b 45 f0             	mov    -0x10(%ebp),%eax
   10e67:	8b 55 e4             	mov    -0x1c(%ebp),%edx
   10e6a:	89 50 0c             	mov    %edx,0xc(%eax)
    return (char * )pre_heap_end;        
   10e6d:	8b 45 ec             	mov    -0x14(%ebp),%eax
}
   10e70:	c9                   	leave  
   10e71:	c3                   	ret    

00010e72 <inb>:
static inline uint8_t inb(uint16_t  port) {
   10e72:	55                   	push   %ebp
   10e73:	89 e5                	mov    %esp,%ebp
   10e75:	83 ec 14             	sub    $0x14,%esp
   10e78:	8b 45 08             	mov    0x8(%ebp),%eax
   10e7b:	66 89 45 ec          	mov    %ax,-0x14(%ebp)
	__asm__ __volatile__("inb %[p], %[v]" : [v]"=a" (rv) : [p]"d"(port));
   10e7f:	0f b7 45 ec          	movzwl -0x14(%ebp),%eax
   10e83:	89 c2                	mov    %eax,%edx
   10e85:	ec                   	in     (%dx),%al
   10e86:	88 45 ff             	mov    %al,-0x1(%ebp)
	return rv;
   10e89:	0f b6 45 ff          	movzbl -0x1(%ebp),%eax
}
   10e8d:	c9                   	leave  
   10e8e:	c3                   	ret    

00010e8f <inw>:
static inline uint16_t inw(uint16_t  port) {
   10e8f:	55                   	push   %ebp
   10e90:	89 e5                	mov    %esp,%ebp
   10e92:	83 ec 14             	sub    $0x14,%esp
   10e95:	8b 45 08             	mov    0x8(%ebp),%eax
   10e98:	66 89 45 ec          	mov    %ax,-0x14(%ebp)
	__asm__ __volatile__("in %1, %0" : "=a" (rv) : "dN" (port));
   10e9c:	0f b7 45 ec          	movzwl -0x14(%ebp),%eax
   10ea0:	89 c2                	mov    %eax,%edx
   10ea2:	66 ed                	in     (%dx),%ax
   10ea4:	66 89 45 fe          	mov    %ax,-0x2(%ebp)
	return rv;
   10ea8:	0f b7 45 fe          	movzwl -0x2(%ebp),%eax
}
   10eac:	c9                   	leave  
   10ead:	c3                   	ret    

00010eae <outb>:
static inline void outb(uint16_t port, uint8_t data) {
   10eae:	55                   	push   %ebp
   10eaf:	89 e5                	mov    %esp,%ebp
   10eb1:	83 ec 08             	sub    $0x8,%esp
   10eb4:	8b 55 08             	mov    0x8(%ebp),%edx
   10eb7:	8b 45 0c             	mov    0xc(%ebp),%eax
   10eba:	66 89 55 fc          	mov    %dx,-0x4(%ebp)
   10ebe:	88 45 f8             	mov    %al,-0x8(%ebp)
	__asm__ __volatile__("outb %[v], %[p]" : : [p]"d" (port), [v]"a" (data));
   10ec1:	0f b7 55 fc          	movzwl -0x4(%ebp),%edx
   10ec5:	0f b6 45 f8          	movzbl -0x8(%ebp),%eax
   10ec9:	ee                   	out    %al,(%dx)
}
   10eca:	90                   	nop
   10ecb:	c9                   	leave  
   10ecc:	c3                   	ret    

00010ecd <read_disk>:
        fat_t fat_data;
    };                 
}fs_t;


static void read_disk(int sector, int sector_count, uint8_t * buf) {
   10ecd:	55                   	push   %ebp
   10ece:	89 e5                	mov    %esp,%ebp
   10ed0:	53                   	push   %ebx
   10ed1:	83 ec 10             	sub    $0x10,%esp
    outb(0x1F6, (uint8_t) (0xE0));
   10ed4:	68 e0 00 00 00       	push   $0xe0
   10ed9:	68 f6 01 00 00       	push   $0x1f6
   10ede:	e8 cb ff ff ff       	call   10eae <outb>
   10ee3:	83 c4 08             	add    $0x8,%esp

	outb(0x1F2, (uint8_t) (sector_count >> 8));
   10ee6:	8b 45 0c             	mov    0xc(%ebp),%eax
   10ee9:	c1 f8 08             	sar    $0x8,%eax
   10eec:	0f b6 c0             	movzbl %al,%eax
   10eef:	50                   	push   %eax
   10ef0:	68 f2 01 00 00       	push   $0x1f2
   10ef5:	e8 b4 ff ff ff       	call   10eae <outb>
   10efa:	83 c4 08             	add    $0x8,%esp
    outb(0x1F3, (uint8_t) (sector >> 24));		// LBA参数的24~31位
   10efd:	8b 45 08             	mov    0x8(%ebp),%eax
   10f00:	c1 f8 18             	sar    $0x18,%eax
   10f03:	0f b6 c0             	movzbl %al,%eax
   10f06:	50                   	push   %eax
   10f07:	68 f3 01 00 00       	push   $0x1f3
   10f0c:	e8 9d ff ff ff       	call   10eae <outb>
   10f11:	83 c4 08             	add    $0x8,%esp
    outb(0x1F4, (uint8_t) (0));					// LBA参数的32~39位
   10f14:	6a 00                	push   $0x0
   10f16:	68 f4 01 00 00       	push   $0x1f4
   10f1b:	e8 8e ff ff ff       	call   10eae <outb>
   10f20:	83 c4 08             	add    $0x8,%esp
    outb(0x1F5, (uint8_t) (0));					// LBA参数的40~47位
   10f23:	6a 00                	push   $0x0
   10f25:	68 f5 01 00 00       	push   $0x1f5
   10f2a:	e8 7f ff ff ff       	call   10eae <outb>
   10f2f:	83 c4 08             	add    $0x8,%esp

    outb(0x1F2, (uint8_t) (sector_count));
   10f32:	8b 45 0c             	mov    0xc(%ebp),%eax
   10f35:	0f b6 c0             	movzbl %al,%eax
   10f38:	50                   	push   %eax
   10f39:	68 f2 01 00 00       	push   $0x1f2
   10f3e:	e8 6b ff ff ff       	call   10eae <outb>
   10f43:	83 c4 08             	add    $0x8,%esp
	outb(0x1F3, (uint8_t) (sector));			// LBA参数的0~7位
   10f46:	8b 45 08             	mov    0x8(%ebp),%eax
   10f49:	0f b6 c0             	movzbl %al,%eax
   10f4c:	50                   	push   %eax
   10f4d:	68 f3 01 00 00       	push   $0x1f3
   10f52:	e8 57 ff ff ff       	call   10eae <outb>
   10f57:	83 c4 08             	add    $0x8,%esp
	outb(0x1F4, (uint8_t) (sector >> 8));		// LBA参数的8~15位
   10f5a:	8b 45 08             	mov    0x8(%ebp),%eax
   10f5d:	c1 f8 08             	sar    $0x8,%eax
   10f60:	0f b6 c0             	movzbl %al,%eax
   10f63:	50                   	push   %eax
   10f64:	68 f4 01 00 00       	push   $0x1f4
   10f69:	e8 40 ff ff ff       	call   10eae <outb>
   10f6e:	83 c4 08             	add    $0x8,%esp
	outb(0x1F5, (uint8_t) (sector >> 16));		// LBA参数的16~23位
   10f71:	8b 45 08             	mov    0x8(%ebp),%eax
   10f74:	c1 f8 10             	sar    $0x10,%eax
   10f77:	0f b6 c0             	movzbl %al,%eax
   10f7a:	50                   	push   %eax
   10f7b:	68 f5 01 00 00       	push   $0x1f5
   10f80:	e8 29 ff ff ff       	call   10eae <outb>
   10f85:	83 c4 08             	add    $0x8,%esp

	outb(0x1F7, (uint8_t) 0x24);
   10f88:	6a 24                	push   $0x24
   10f8a:	68 f7 01 00 00       	push   $0x1f7
   10f8f:	e8 1a ff ff ff       	call   10eae <outb>
   10f94:	83 c4 08             	add    $0x8,%esp

	// 读取数据
	uint16_t *data_buf = (uint16_t*) buf;
   10f97:	8b 45 10             	mov    0x10(%ebp),%eax
   10f9a:	89 45 f8             	mov    %eax,-0x8(%ebp)
	while (sector_count-- > 0) {
   10f9d:	eb 4a                	jmp    10fe9 <read_disk+0x11c>
		// 每次扇区读之前都要检查，等待数据就绪
		while ((inb(0x1F7) & 0x88) != 0x8) {}
   10f9f:	90                   	nop
   10fa0:	68 f7 01 00 00       	push   $0x1f7
   10fa5:	e8 c8 fe ff ff       	call   10e72 <inb>
   10faa:	83 c4 04             	add    $0x4,%esp
   10fad:	0f b6 c0             	movzbl %al,%eax
   10fb0:	25 88 00 00 00       	and    $0x88,%eax
   10fb5:	83 f8 08             	cmp    $0x8,%eax
   10fb8:	75 e6                	jne    10fa0 <read_disk+0xd3>

		// 读取并将数据写入到缓存中
		for (int i = 0; i < SECTOR_SIZE / 2; i++) {
   10fba:	c7 45 f4 00 00 00 00 	movl   $0x0,-0xc(%ebp)
   10fc1:	eb 1d                	jmp    10fe0 <read_disk+0x113>
			*data_buf++ = inw(0x1F0);
   10fc3:	8b 5d f8             	mov    -0x8(%ebp),%ebx
   10fc6:	8d 43 02             	lea    0x2(%ebx),%eax
   10fc9:	89 45 f8             	mov    %eax,-0x8(%ebp)
   10fcc:	68 f0 01 00 00       	push   $0x1f0
   10fd1:	e8 b9 fe ff ff       	call   10e8f <inw>
   10fd6:	83 c4 04             	add    $0x4,%esp
   10fd9:	66 89 03             	mov    %ax,(%ebx)
		for (int i = 0; i < SECTOR_SIZE / 2; i++) {
   10fdc:	83 45 f4 01          	addl   $0x1,-0xc(%ebp)
   10fe0:	81 7d f4 ff 00 00 00 	cmpl   $0xff,-0xc(%ebp)
   10fe7:	7e da                	jle    10fc3 <read_disk+0xf6>
	while (sector_count-- > 0) {
   10fe9:	8b 45 0c             	mov    0xc(%ebp),%eax
   10fec:	8d 50 ff             	lea    -0x1(%eax),%edx
   10fef:	89 55 0c             	mov    %edx,0xc(%ebp)
   10ff2:	85 c0                	test   %eax,%eax
   10ff4:	7f a9                	jg     10f9f <read_disk+0xd2>
		}
	}
}
   10ff6:	90                   	nop
   10ff7:	8b 5d fc             	mov    -0x4(%ebp),%ebx
   10ffa:	c9                   	leave  
   10ffb:	c3                   	ret    

00010ffc <do_handler_syscall>:
    [SYS_READDIR]  =  (syscall_handler_t)sys_readdir,
    [SYS_CLOSEDIR] = (syscall_handler_t)sys_closedir,
    [SYS_PRINTMSG] = (syscall_handler_t)sys_print_msg,
};
void do_handler_syscall(syscall_frame_t* frame)
{
   10ffc:	55                   	push   %ebp
   10ffd:	89 e5                	mov    %esp,%ebp
   10fff:	53                   	push   %ebx
   11000:	83 ec 14             	sub    $0x14,%esp
    if(frame->id < sizeof(syscall_table) / sizeof(syscall_handler_t))
   11003:	8b 45 08             	mov    0x8(%ebp),%eax
   11006:	8b 40 3c             	mov    0x3c(%eax),%eax
   11009:	83 f8 64             	cmp    $0x64,%eax
   1100c:	77 48                	ja     11056 <do_handler_syscall+0x5a>
    {
        syscall_handler_t handler = syscall_table[frame->id];
   1100e:	8b 45 08             	mov    0x8(%ebp),%eax
   11011:	8b 40 3c             	mov    0x3c(%eax),%eax
   11014:	8b 04 85 c0 91 01 00 	mov    0x191c0(,%eax,4),%eax
   1101b:	89 45 f4             	mov    %eax,-0xc(%ebp)
        if(handler)
   1101e:	83 7d f4 00          	cmpl   $0x0,-0xc(%ebp)
   11022:	74 32                	je     11056 <do_handler_syscall+0x5a>
        {
            int ret = handler(frame->arg0, frame->arg1, frame->arg2, frame->arg3);
   11024:	8b 45 08             	mov    0x8(%ebp),%eax
   11027:	8b 58 4c             	mov    0x4c(%eax),%ebx
   1102a:	8b 45 08             	mov    0x8(%ebp),%eax
   1102d:	8b 48 48             	mov    0x48(%eax),%ecx
   11030:	8b 45 08             	mov    0x8(%ebp),%eax
   11033:	8b 50 44             	mov    0x44(%eax),%edx
   11036:	8b 45 08             	mov    0x8(%ebp),%eax
   11039:	8b 40 40             	mov    0x40(%eax),%eax
   1103c:	53                   	push   %ebx
   1103d:	51                   	push   %ecx
   1103e:	52                   	push   %edx
   1103f:	50                   	push   %eax
   11040:	8b 45 f4             	mov    -0xc(%ebp),%eax
   11043:	ff d0                	call   *%eax
   11045:	83 c4 10             	add    $0x10,%esp
   11048:	89 45 f0             	mov    %eax,-0x10(%ebp)
            frame->eax = ret;
   1104b:	8b 55 f0             	mov    -0x10(%ebp),%edx
   1104e:	8b 45 08             	mov    0x8(%ebp),%eax
   11051:	89 50 30             	mov    %edx,0x30(%eax)
            return;
   11054:	eb 21                	jmp    11077 <do_handler_syscall+0x7b>
        }
            
    }
    task_t* task = task_manager.curr_task;
   11056:	a1 64 fc 05 00       	mov    0x5fc64,%eax
   1105b:	89 45 ec             	mov    %eax,-0x14(%ebp)
    log_printf("task is : %s", task->name);
   1105e:	8b 45 ec             	mov    -0x14(%ebp),%eax
   11061:	05 2c 02 00 00       	add    $0x22c,%eax
   11066:	83 ec 08             	sub    $0x8,%esp
   11069:	50                   	push   %eax
   1106a:	68 54 93 01 00       	push   $0x19354
   1106f:	e8 d8 7e 00 00       	call   18f4c <log_printf>
   11074:	83 c4 10             	add    $0x10,%esp
   11077:	8b 5d fc             	mov    -0x4(%ebp),%ebx
   1107a:	c9                   	leave  
   1107b:	c3                   	ret    

0001107c <inb>:
static inline uint8_t inb(uint16_t  port) {
   1107c:	55                   	push   %ebp
   1107d:	89 e5                	mov    %esp,%ebp
   1107f:	83 ec 14             	sub    $0x14,%esp
   11082:	8b 45 08             	mov    0x8(%ebp),%eax
   11085:	66 89 45 ec          	mov    %ax,-0x14(%ebp)
	__asm__ __volatile__("inb %[p], %[v]" : [v]"=a" (rv) : [p]"d"(port));
   11089:	0f b7 45 ec          	movzwl -0x14(%ebp),%eax
   1108d:	89 c2                	mov    %eax,%edx
   1108f:	ec                   	in     (%dx),%al
   11090:	88 45 ff             	mov    %al,-0x1(%ebp)
	return rv;
   11093:	0f b6 45 ff          	movzbl -0x1(%ebp),%eax
}
   11097:	c9                   	leave  
   11098:	c3                   	ret    

00011099 <inw>:
static inline uint16_t inw(uint16_t  port) {
   11099:	55                   	push   %ebp
   1109a:	89 e5                	mov    %esp,%ebp
   1109c:	83 ec 14             	sub    $0x14,%esp
   1109f:	8b 45 08             	mov    0x8(%ebp),%eax
   110a2:	66 89 45 ec          	mov    %ax,-0x14(%ebp)
	__asm__ __volatile__("in %1, %0" : "=a" (rv) : "dN" (port));
   110a6:	0f b7 45 ec          	movzwl -0x14(%ebp),%eax
   110aa:	89 c2                	mov    %eax,%edx
   110ac:	66 ed                	in     (%dx),%ax
   110ae:	66 89 45 fe          	mov    %ax,-0x2(%ebp)
	return rv;
   110b2:	0f b7 45 fe          	movzwl -0x2(%ebp),%eax
}
   110b6:	c9                   	leave  
   110b7:	c3                   	ret    

000110b8 <outb>:
static inline void outb(uint16_t port, uint8_t data) {
   110b8:	55                   	push   %ebp
   110b9:	89 e5                	mov    %esp,%ebp
   110bb:	83 ec 08             	sub    $0x8,%esp
   110be:	8b 55 08             	mov    0x8(%ebp),%edx
   110c1:	8b 45 0c             	mov    0xc(%ebp),%eax
   110c4:	66 89 55 fc          	mov    %dx,-0x4(%ebp)
   110c8:	88 45 f8             	mov    %al,-0x8(%ebp)
	__asm__ __volatile__("outb %[v], %[p]" : : [p]"d" (port), [v]"a" (data));
   110cb:	0f b7 55 fc          	movzwl -0x4(%ebp),%edx
   110cf:	0f b6 45 f8          	movzbl -0x8(%ebp),%eax
   110d3:	ee                   	out    %al,(%dx)
}
   110d4:	90                   	nop
   110d5:	c9                   	leave  
   110d6:	c3                   	ret    

000110d7 <write_cr3>:
static inline void write_cr3(uint32_t v) {
   110d7:	55                   	push   %ebp
   110d8:	89 e5                	mov    %esp,%ebp
    __asm__ __volatile__("mov %[v], %%cr3"::[v]"r"(v));
   110da:	8b 45 08             	mov    0x8(%ebp),%eax
   110dd:	0f 22 d8             	mov    %eax,%cr3
}
   110e0:	90                   	nop
   110e1:	5d                   	pop    %ebp
   110e2:	c3                   	ret    

000110e3 <far_jump>:

static inline void write_cr4(uint32_t v) {
    __asm__ __volatile__("mov %[v], %%cr4"::[v]"r"(v));
}

static inline void far_jump(uint32_t selector, uint32_t offset) {
   110e3:	55                   	push   %ebp
   110e4:	89 e5                	mov    %esp,%ebp
   110e6:	83 ec 10             	sub    $0x10,%esp
	uint32_t addr[] = {offset, selector };
   110e9:	8b 45 0c             	mov    0xc(%ebp),%eax
   110ec:	89 45 f8             	mov    %eax,-0x8(%ebp)
   110ef:	8b 45 08             	mov    0x8(%ebp),%eax
   110f2:	89 45 fc             	mov    %eax,-0x4(%ebp)
	__asm__ __volatile__("ljmpl *(%[a])"::[a]"r"(addr));
   110f5:	8d 45 f8             	lea    -0x8(%ebp),%eax
   110f8:	ff 28                	ljmp   *(%eax)
}
   110fa:	90                   	nop
   110fb:	c9                   	leave  
   110fc:	c3                   	ret    

000110fd <hlt>:

static inline void hlt() {
   110fd:	55                   	push   %ebp
   110fe:	89 e5                	mov    %esp,%ebp
	__asm__ __volatile__("hlt");
   11100:	f4                   	hlt    
}
   11101:	90                   	nop
   11102:	5d                   	pop    %ebp
   11103:	c3                   	ret    

00011104 <ltr>:

static inline void ltr(uint16_t selector) {
   11104:	55                   	push   %ebp
   11105:	89 e5                	mov    %esp,%ebp
   11107:	83 ec 04             	sub    $0x4,%esp
   1110a:	8b 45 08             	mov    0x8(%ebp),%eax
   1110d:	66 89 45 fc          	mov    %ax,-0x4(%ebp)
	__asm__ __volatile__("ltr %%ax"::"a"(selector));
   11111:	0f b7 45 fc          	movzwl -0x4(%ebp),%eax
   11115:	0f 00 d8             	ltr    %ax
}
   11118:	90                   	nop
   11119:	c9                   	leave  
   1111a:	c3                   	ret    

0001111b <list_node_init>:

/**
 * 头结点的初始化
 * @param node 待初始化的结果
 */
static inline void list_node_init(list_node_t *node) {
   1111b:	55                   	push   %ebp
   1111c:	89 e5                	mov    %esp,%ebp
    node->pre = node->next = (list_node_t *)0;
   1111e:	8b 45 08             	mov    0x8(%ebp),%eax
   11121:	c7 40 04 00 00 00 00 	movl   $0x0,0x4(%eax)
   11128:	8b 45 08             	mov    0x8(%ebp),%eax
   1112b:	8b 50 04             	mov    0x4(%eax),%edx
   1112e:	8b 45 08             	mov    0x8(%ebp),%eax
   11131:	89 10                	mov    %edx,(%eax)
}
   11133:	90                   	nop
   11134:	5d                   	pop    %ebp
   11135:	c3                   	ret    

00011136 <list_count>:
/**
 * 获取链表的结点数量
 * @param list 查询的链表
 * @return 结果的数据
 */
static inline int list_count(list_t *list) {
   11136:	55                   	push   %ebp
   11137:	89 e5                	mov    %esp,%ebp
    return list->count;
   11139:	8b 45 08             	mov    0x8(%ebp),%eax
   1113c:	8b 40 08             	mov    0x8(%eax),%eax
}
   1113f:	5d                   	pop    %ebp
   11140:	c3                   	ret    

00011141 <list_first>:
/**
 * 获取指定链表的第一个表项
 * @param list 查询的链表
 * @return 第一个表项
 */
static inline list_node_t* list_first(list_t *list) {
   11141:	55                   	push   %ebp
   11142:	89 e5                	mov    %esp,%ebp
    return list->first;
   11144:	8b 45 08             	mov    0x8(%ebp),%eax
   11147:	8b 00                	mov    (%eax),%eax
}
   11149:	5d                   	pop    %ebp
   1114a:	c3                   	ret    

0001114b <mmu_set_page_dir>:
{
   1114b:	55                   	push   %ebp
   1114c:	89 e5                	mov    %esp,%ebp
    write_cr3(page_dir);
   1114e:	ff 75 08             	pushl  0x8(%ebp)
   11151:	e8 81 ff ff ff       	call   110d7 <write_cr3>
   11156:	83 c4 04             	add    $0x4,%esp
}
   11159:	90                   	nop
   1115a:	c9                   	leave  
   1115b:	c3                   	ret    

0001115c <read_disk>:
static void read_disk(int sector, int sector_count, uint8_t * buf) {
   1115c:	55                   	push   %ebp
   1115d:	89 e5                	mov    %esp,%ebp
   1115f:	53                   	push   %ebx
   11160:	83 ec 10             	sub    $0x10,%esp
    outb(0x1F6, (uint8_t) (0xE0));
   11163:	68 e0 00 00 00       	push   $0xe0
   11168:	68 f6 01 00 00       	push   $0x1f6
   1116d:	e8 46 ff ff ff       	call   110b8 <outb>
   11172:	83 c4 08             	add    $0x8,%esp
	outb(0x1F2, (uint8_t) (sector_count >> 8));
   11175:	8b 45 0c             	mov    0xc(%ebp),%eax
   11178:	c1 f8 08             	sar    $0x8,%eax
   1117b:	0f b6 c0             	movzbl %al,%eax
   1117e:	50                   	push   %eax
   1117f:	68 f2 01 00 00       	push   $0x1f2
   11184:	e8 2f ff ff ff       	call   110b8 <outb>
   11189:	83 c4 08             	add    $0x8,%esp
    outb(0x1F3, (uint8_t) (sector >> 24));		// LBA参数的24~31位
   1118c:	8b 45 08             	mov    0x8(%ebp),%eax
   1118f:	c1 f8 18             	sar    $0x18,%eax
   11192:	0f b6 c0             	movzbl %al,%eax
   11195:	50                   	push   %eax
   11196:	68 f3 01 00 00       	push   $0x1f3
   1119b:	e8 18 ff ff ff       	call   110b8 <outb>
   111a0:	83 c4 08             	add    $0x8,%esp
    outb(0x1F4, (uint8_t) (0));					// LBA参数的32~39位
   111a3:	6a 00                	push   $0x0
   111a5:	68 f4 01 00 00       	push   $0x1f4
   111aa:	e8 09 ff ff ff       	call   110b8 <outb>
   111af:	83 c4 08             	add    $0x8,%esp
    outb(0x1F5, (uint8_t) (0));					// LBA参数的40~47位
   111b2:	6a 00                	push   $0x0
   111b4:	68 f5 01 00 00       	push   $0x1f5
   111b9:	e8 fa fe ff ff       	call   110b8 <outb>
   111be:	83 c4 08             	add    $0x8,%esp
    outb(0x1F2, (uint8_t) (sector_count));
   111c1:	8b 45 0c             	mov    0xc(%ebp),%eax
   111c4:	0f b6 c0             	movzbl %al,%eax
   111c7:	50                   	push   %eax
   111c8:	68 f2 01 00 00       	push   $0x1f2
   111cd:	e8 e6 fe ff ff       	call   110b8 <outb>
   111d2:	83 c4 08             	add    $0x8,%esp
	outb(0x1F3, (uint8_t) (sector));			// LBA参数的0~7位
   111d5:	8b 45 08             	mov    0x8(%ebp),%eax
   111d8:	0f b6 c0             	movzbl %al,%eax
   111db:	50                   	push   %eax
   111dc:	68 f3 01 00 00       	push   $0x1f3
   111e1:	e8 d2 fe ff ff       	call   110b8 <outb>
   111e6:	83 c4 08             	add    $0x8,%esp
	outb(0x1F4, (uint8_t) (sector >> 8));		// LBA参数的8~15位
   111e9:	8b 45 08             	mov    0x8(%ebp),%eax
   111ec:	c1 f8 08             	sar    $0x8,%eax
   111ef:	0f b6 c0             	movzbl %al,%eax
   111f2:	50                   	push   %eax
   111f3:	68 f4 01 00 00       	push   $0x1f4
   111f8:	e8 bb fe ff ff       	call   110b8 <outb>
   111fd:	83 c4 08             	add    $0x8,%esp
	outb(0x1F5, (uint8_t) (sector >> 16));		// LBA参数的16~23位
   11200:	8b 45 08             	mov    0x8(%ebp),%eax
   11203:	c1 f8 10             	sar    $0x10,%eax
   11206:	0f b6 c0             	movzbl %al,%eax
   11209:	50                   	push   %eax
   1120a:	68 f5 01 00 00       	push   $0x1f5
   1120f:	e8 a4 fe ff ff       	call   110b8 <outb>
   11214:	83 c4 08             	add    $0x8,%esp
	outb(0x1F7, (uint8_t) 0x24);
   11217:	6a 24                	push   $0x24
   11219:	68 f7 01 00 00       	push   $0x1f7
   1121e:	e8 95 fe ff ff       	call   110b8 <outb>
   11223:	83 c4 08             	add    $0x8,%esp
	uint16_t *data_buf = (uint16_t*) buf;
   11226:	8b 45 10             	mov    0x10(%ebp),%eax
   11229:	89 45 f8             	mov    %eax,-0x8(%ebp)
	while (sector_count-- > 0) {
   1122c:	eb 4a                	jmp    11278 <read_disk+0x11c>
		while ((inb(0x1F7) & 0x88) != 0x8) {}
   1122e:	90                   	nop
   1122f:	68 f7 01 00 00       	push   $0x1f7
   11234:	e8 43 fe ff ff       	call   1107c <inb>
   11239:	83 c4 04             	add    $0x4,%esp
   1123c:	0f b6 c0             	movzbl %al,%eax
   1123f:	25 88 00 00 00       	and    $0x88,%eax
   11244:	83 f8 08             	cmp    $0x8,%eax
   11247:	75 e6                	jne    1122f <read_disk+0xd3>
		for (int i = 0; i < SECTOR_SIZE / 2; i++) {
   11249:	c7 45 f4 00 00 00 00 	movl   $0x0,-0xc(%ebp)
   11250:	eb 1d                	jmp    1126f <read_disk+0x113>
			*data_buf++ = inw(0x1F0);
   11252:	8b 5d f8             	mov    -0x8(%ebp),%ebx
   11255:	8d 43 02             	lea    0x2(%ebx),%eax
   11258:	89 45 f8             	mov    %eax,-0x8(%ebp)
   1125b:	68 f0 01 00 00       	push   $0x1f0
   11260:	e8 34 fe ff ff       	call   11099 <inw>
   11265:	83 c4 04             	add    $0x4,%esp
   11268:	66 89 03             	mov    %ax,(%ebx)
		for (int i = 0; i < SECTOR_SIZE / 2; i++) {
   1126b:	83 45 f4 01          	addl   $0x1,-0xc(%ebp)
   1126f:	81 7d f4 ff 00 00 00 	cmpl   $0xff,-0xc(%ebp)
   11276:	7e da                	jle    11252 <read_disk+0xf6>
	while (sector_count-- > 0) {
   11278:	8b 45 0c             	mov    0xc(%ebp),%eax
   1127b:	8d 50 ff             	lea    -0x1(%eax),%edx
   1127e:	89 55 0c             	mov    %edx,0xc(%ebp)
   11281:	85 c0                	test   %eax,%eax
   11283:	7f a9                	jg     1122e <read_disk+0xd2>
}
   11285:	90                   	nop
   11286:	8b 5d fc             	mov    -0x4(%ebp),%ebx
   11289:	c9                   	leave  
   1128a:	c3                   	ret    

0001128b <task_file>:
#include "fs/fs.h"
static uint32_t* idle_stack[IDLE_STACK_SIZE];
static mutex_t task_table_mutex;
static task_t task_table[TASK_NUM];

file_t * task_file (int fd) {
   1128b:	55                   	push   %ebp
   1128c:	89 e5                	mov    %esp,%ebp
   1128e:	83 ec 10             	sub    $0x10,%esp
    if ((fd >= 0) && (fd < TASK_OFILE_NR)) {
   11291:	83 7d 08 00          	cmpl   $0x0,0x8(%ebp)
   11295:	78 1d                	js     112b4 <task_file+0x29>
   11297:	83 7d 08 7f          	cmpl   $0x7f,0x8(%ebp)
   1129b:	7f 17                	jg     112b4 <task_file+0x29>
        file_t * file =  task_manager.curr_task->file_table[fd];
   1129d:	a1 64 fc 05 00       	mov    0x5fc64,%eax
   112a2:	8b 55 08             	mov    0x8(%ebp),%edx
   112a5:	83 c2 08             	add    $0x8,%edx
   112a8:	8b 44 90 08          	mov    0x8(%eax,%edx,4),%eax
   112ac:	89 45 fc             	mov    %eax,-0x4(%ebp)
        return file;
   112af:	8b 45 fc             	mov    -0x4(%ebp),%eax
   112b2:	eb 05                	jmp    112b9 <task_file+0x2e>
    }

    return (file_t *)0;
   112b4:	b8 00 00 00 00       	mov    $0x0,%eax
}
   112b9:	c9                   	leave  
   112ba:	c3                   	ret    

000112bb <task_alloc_fd>:


int task_alloc_fd (file_t * file) {
   112bb:	55                   	push   %ebp
   112bc:	89 e5                	mov    %esp,%ebp
   112be:	83 ec 10             	sub    $0x10,%esp
    task_t * task = task_manager.curr_task;
   112c1:	a1 64 fc 05 00       	mov    0x5fc64,%eax
   112c6:	89 45 f8             	mov    %eax,-0x8(%ebp)

    for (int i = 0; i < TASK_OFILE_NR; i++) {
   112c9:	c7 45 fc 00 00 00 00 	movl   $0x0,-0x4(%ebp)
   112d0:	eb 2f                	jmp    11301 <task_alloc_fd+0x46>
        file_t * p = task->file_table[i];
   112d2:	8b 45 f8             	mov    -0x8(%ebp),%eax
   112d5:	8b 55 fc             	mov    -0x4(%ebp),%edx
   112d8:	83 c2 08             	add    $0x8,%edx
   112db:	8b 44 90 08          	mov    0x8(%eax,%edx,4),%eax
   112df:	89 45 f4             	mov    %eax,-0xc(%ebp)
        if (p == (file_t *)0) {
   112e2:	83 7d f4 00          	cmpl   $0x0,-0xc(%ebp)
   112e6:	75 15                	jne    112fd <task_alloc_fd+0x42>
            task->file_table[i] = file;
   112e8:	8b 45 f8             	mov    -0x8(%ebp),%eax
   112eb:	8b 55 fc             	mov    -0x4(%ebp),%edx
   112ee:	8d 4a 08             	lea    0x8(%edx),%ecx
   112f1:	8b 55 08             	mov    0x8(%ebp),%edx
   112f4:	89 54 88 08          	mov    %edx,0x8(%eax,%ecx,4)
            return i;
   112f8:	8b 45 fc             	mov    -0x4(%ebp),%eax
   112fb:	eb 0f                	jmp    1130c <task_alloc_fd+0x51>
    for (int i = 0; i < TASK_OFILE_NR; i++) {
   112fd:	83 45 fc 01          	addl   $0x1,-0x4(%ebp)
   11301:	83 7d fc 7f          	cmpl   $0x7f,-0x4(%ebp)
   11305:	7e cb                	jle    112d2 <task_alloc_fd+0x17>
        }
    }

    return -1;
   11307:	b8 ff ff ff ff       	mov    $0xffffffff,%eax
}
   1130c:	c9                   	leave  
   1130d:	c3                   	ret    

0001130e <task_remove_fd>:


void task_remove_fd (int fd) {
   1130e:	55                   	push   %ebp
   1130f:	89 e5                	mov    %esp,%ebp
    if ((fd >= 0) && (fd < TASK_OFILE_NR)) {
   11311:	83 7d 08 00          	cmpl   $0x0,0x8(%ebp)
   11315:	78 19                	js     11330 <task_remove_fd+0x22>
   11317:	83 7d 08 7f          	cmpl   $0x7f,0x8(%ebp)
   1131b:	7f 13                	jg     11330 <task_remove_fd+0x22>
         task_manager.curr_task->file_table[fd] = (file_t *)0;
   1131d:	a1 64 fc 05 00       	mov    0x5fc64,%eax
   11322:	8b 55 08             	mov    0x8(%ebp),%edx
   11325:	83 c2 08             	add    $0x8,%edx
   11328:	c7 44 90 08 00 00 00 	movl   $0x0,0x8(%eax,%edx,4)
   1132f:	00 
    }
}
   11330:	90                   	nop
   11331:	5d                   	pop    %ebp
   11332:	c3                   	ret    

00011333 <tss_init>:
static int  tss_init(task_t* task, uint32_t entry, uint32_t esp, int flag)
{
   11333:	55                   	push   %ebp
   11334:	89 e5                	mov    %esp,%ebp
   11336:	83 ec 28             	sub    $0x28,%esp
    
    kernel_memset(&(task -> tss), 0, sizeof(tss_t));
   11339:	8b 45 08             	mov    0x8(%ebp),%eax
   1133c:	05 5c 02 00 00       	add    $0x25c,%eax
   11341:	83 ec 04             	sub    $0x4,%esp
   11344:	6a 68                	push   $0x68
   11346:	6a 00                	push   $0x0
   11348:	50                   	push   %eax
   11349:	e8 54 76 00 00       	call   189a2 <kernel_memset>
   1134e:	83 c4 10             	add    $0x10,%esp
    int selector = gdt_alloc_desc();
   11351:	e8 2a 15 00 00       	call   12880 <gdt_alloc_desc>
   11356:	89 45 ec             	mov    %eax,-0x14(%ebp)
    if (selector < 0) {
   11359:	83 7d ec 00          	cmpl   $0x0,-0x14(%ebp)
   1135d:	79 1a                	jns    11379 <tss_init+0x46>
        log_printf("alloc tss failed.\n");
   1135f:	83 ec 0c             	sub    $0xc,%esp
   11362:	68 64 93 01 00       	push   $0x19364
   11367:	e8 e0 7b 00 00       	call   18f4c <log_printf>
   1136c:	83 c4 10             	add    $0x10,%esp
        return -1;
   1136f:	b8 ff ff ff ff       	mov    $0xffffffff,%eax
   11374:	e9 6e 01 00 00       	jmp    114e7 <tss_init+0x1b4>
    }
    segment_desc_set(selector, (uint32_t)&task->tss, sizeof(tss_t), 
   11379:	8b 45 08             	mov    0x8(%ebp),%eax
   1137c:	05 5c 02 00 00       	add    $0x25c,%eax
   11381:	68 89 00 00 00       	push   $0x89
   11386:	6a 68                	push   $0x68
   11388:	50                   	push   %eax
   11389:	ff 75 ec             	pushl  -0x14(%ebp)
   1138c:	e8 80 13 00 00       	call   12711 <segment_desc_set>
   11391:	83 c4 10             	add    $0x10,%esp
    (SEG_P_PRESENT| SEG_DPL0 | SEG_TYPE_TSS));
    kernel_memset(&task->tss, 0, sizeof(tss_t));
   11394:	8b 45 08             	mov    0x8(%ebp),%eax
   11397:	05 5c 02 00 00       	add    $0x25c,%eax
   1139c:	83 ec 04             	sub    $0x4,%esp
   1139f:	6a 68                	push   $0x68
   113a1:	6a 00                	push   $0x0
   113a3:	50                   	push   %eax
   113a4:	e8 f9 75 00 00       	call   189a2 <kernel_memset>
   113a9:	83 c4 10             	add    $0x10,%esp
    uint32_t kernel_page = memory_alloc_page();
   113ac:	e8 d5 f5 ff ff       	call   10986 <memory_alloc_page>
   113b1:	89 45 e8             	mov    %eax,-0x18(%ebp)
    if(kernel_page == 0)
   113b4:	83 7d e8 00          	cmpl   $0x0,-0x18(%ebp)
   113b8:	0f 84 fe 00 00 00    	je     114bc <tss_init+0x189>
        goto tss_init_fault;
    int code_sel, data_sel;
    if(flag & TASK_SYSTEM_FLAG)
   113be:	8b 45 14             	mov    0x14(%ebp),%eax
   113c1:	83 e0 01             	and    $0x1,%eax
   113c4:	85 c0                	test   %eax,%eax
   113c6:	74 10                	je     113d8 <tss_init+0xa5>
    {
        code_sel = KERNEL_SELECTOR_CS;
   113c8:	c7 45 f4 08 00 00 00 	movl   $0x8,-0xc(%ebp)
        data_sel = KERNEL_SELECTOR_DS;
   113cf:	c7 45 f0 10 00 00 00 	movl   $0x10,-0x10(%ebp)
   113d6:	eb 16                	jmp    113ee <tss_init+0xbb>
    }
    else {
        code_sel = task_manager.app_code_sel | SEG_CPL3; //设置选择子的 RPL位
   113d8:	a1 f8 01 06 00       	mov    0x601f8,%eax
   113dd:	83 c8 03             	or     $0x3,%eax
   113e0:	89 45 f4             	mov    %eax,-0xc(%ebp)
        data_sel = task_manager.app_data_sel | SEG_CPL3;
   113e3:	a1 fc 01 06 00       	mov    0x601fc,%eax
   113e8:	83 c8 03             	or     $0x3,%eax
   113eb:	89 45 f0             	mov    %eax,-0x10(%ebp)
    }
    
    task -> tss.esp =  esp;
   113ee:	8b 45 08             	mov    0x8(%ebp),%eax
   113f1:	8b 55 10             	mov    0x10(%ebp),%edx
   113f4:	89 90 94 02 00 00    	mov    %edx,0x294(%eax)
    task -> tss.esp0 = kernel_page + MEM_PAGE_SIZE;
   113fa:	8b 45 e8             	mov    -0x18(%ebp),%eax
   113fd:	8d 90 00 10 00 00    	lea    0x1000(%eax),%edx
   11403:	8b 45 08             	mov    0x8(%ebp),%eax
   11406:	89 90 60 02 00 00    	mov    %edx,0x260(%eax)
    task -> tss.ds  = task -> tss.es = task -> tss.fs = task -> tss.gs = data_sel;
   1140c:	8b 55 f0             	mov    -0x10(%ebp),%edx
   1140f:	8b 45 08             	mov    0x8(%ebp),%eax
   11412:	89 90 b8 02 00 00    	mov    %edx,0x2b8(%eax)
   11418:	8b 45 08             	mov    0x8(%ebp),%eax
   1141b:	8b 90 b8 02 00 00    	mov    0x2b8(%eax),%edx
   11421:	8b 45 08             	mov    0x8(%ebp),%eax
   11424:	89 90 b4 02 00 00    	mov    %edx,0x2b4(%eax)
   1142a:	8b 45 08             	mov    0x8(%ebp),%eax
   1142d:	8b 90 b4 02 00 00    	mov    0x2b4(%eax),%edx
   11433:	8b 45 08             	mov    0x8(%ebp),%eax
   11436:	89 90 a4 02 00 00    	mov    %edx,0x2a4(%eax)
   1143c:	8b 45 08             	mov    0x8(%ebp),%eax
   1143f:	8b 90 a4 02 00 00    	mov    0x2a4(%eax),%edx
   11445:	8b 45 08             	mov    0x8(%ebp),%eax
   11448:	89 90 b0 02 00 00    	mov    %edx,0x2b0(%eax)
    task -> tss.eip = entry;
   1144e:	8b 45 08             	mov    0x8(%ebp),%eax
   11451:	8b 55 0c             	mov    0xc(%ebp),%edx
   11454:	89 90 7c 02 00 00    	mov    %edx,0x27c(%eax)
    task -> tss.eflags =  EFLAGS_DEFAULT | EFLAGS_IF;
   1145a:	8b 45 08             	mov    0x8(%ebp),%eax
   1145d:	c7 80 80 02 00 00 02 	movl   $0x202,0x280(%eax)
   11464:	02 00 00 
    task -> tss.ss =  data_sel;
   11467:	8b 55 f0             	mov    -0x10(%ebp),%edx
   1146a:	8b 45 08             	mov    0x8(%ebp),%eax
   1146d:	89 90 ac 02 00 00    	mov    %edx,0x2ac(%eax)
    task -> tss.ss0 = KERNEL_SELECTOR_DS;
   11473:	8b 45 08             	mov    0x8(%ebp),%eax
   11476:	c7 80 64 02 00 00 10 	movl   $0x10,0x264(%eax)
   1147d:	00 00 00 
    task -> tss.cs = code_sel;
   11480:	8b 55 f4             	mov    -0xc(%ebp),%edx
   11483:	8b 45 08             	mov    0x8(%ebp),%eax
   11486:	89 90 a8 02 00 00    	mov    %edx,0x2a8(%eax)
    task -> tss_selector = selector;
   1148c:	8b 45 ec             	mov    -0x14(%ebp),%eax
   1148f:	89 c2                	mov    %eax,%edx
   11491:	8b 45 08             	mov    0x8(%ebp),%eax
   11494:	66 89 90 c4 02 00 00 	mov    %dx,0x2c4(%eax)
    uint32_t page_dir = memory_create_uvm();
   1149b:	e8 88 f3 ff ff       	call   10828 <memory_create_uvm>
   114a0:	89 45 e4             	mov    %eax,-0x1c(%ebp)
    if(page_dir == 0)
   114a3:	83 7d e4 00          	cmpl   $0x0,-0x1c(%ebp)
   114a7:	74 16                	je     114bf <tss_init+0x18c>
    {
        goto tss_init_fault;
    }
    task-> tss.cr3 = page_dir;
   114a9:	8b 45 08             	mov    0x8(%ebp),%eax
   114ac:	8b 55 e4             	mov    -0x1c(%ebp),%edx
   114af:	89 90 78 02 00 00    	mov    %edx,0x278(%eax)
    return 0;
   114b5:	b8 00 00 00 00       	mov    $0x0,%eax
   114ba:	eb 2b                	jmp    114e7 <tss_init+0x1b4>
        goto tss_init_fault;
   114bc:	90                   	nop
   114bd:	eb 01                	jmp    114c0 <tss_init+0x18d>
        goto tss_init_fault;
   114bf:	90                   	nop
tss_init_fault:
    gdt_free_tss(selector);
   114c0:	83 ec 0c             	sub    $0xc,%esp
   114c3:	ff 75 ec             	pushl  -0x14(%ebp)
   114c6:	e8 2a 14 00 00       	call   128f5 <gdt_free_tss>
   114cb:	83 c4 10             	add    $0x10,%esp
    if(kernel_page)
   114ce:	83 7d e8 00          	cmpl   $0x0,-0x18(%ebp)
   114d2:	74 0e                	je     114e2 <tss_init+0x1af>
        memory_free_page(kernel_page);
   114d4:	83 ec 0c             	sub    $0xc,%esp
   114d7:	ff 75 e8             	pushl  -0x18(%ebp)
   114da:	e8 c1 f4 ff ff       	call   109a0 <memory_free_page>
   114df:	83 c4 10             	add    $0x10,%esp
    return -1;
   114e2:	b8 ff ff ff ff       	mov    $0xffffffff,%eax
    
}
   114e7:	c9                   	leave  
   114e8:	c3                   	ret    

000114e9 <task_init>:

int  task_init(task_t* task, const char* name, uint32_t entry, uint32_t esp, int flag)
{
   114e9:	55                   	push   %ebp
   114ea:	89 e5                	mov    %esp,%ebp
   114ec:	83 ec 18             	sub    $0x18,%esp
    int err = tss_init(task, entry, esp, flag);
   114ef:	ff 75 18             	pushl  0x18(%ebp)
   114f2:	ff 75 14             	pushl  0x14(%ebp)
   114f5:	ff 75 10             	pushl  0x10(%ebp)
   114f8:	ff 75 08             	pushl  0x8(%ebp)
   114fb:	e8 33 fe ff ff       	call   11333 <tss_init>
   11500:	83 c4 10             	add    $0x10,%esp
   11503:	89 45 f4             	mov    %eax,-0xc(%ebp)
    if (err < 0) {
   11506:	83 7d f4 00          	cmpl   $0x0,-0xc(%ebp)
   1150a:	79 18                	jns    11524 <task_init+0x3b>
        log_printf("init task failed.\n");
   1150c:	83 ec 0c             	sub    $0xc,%esp
   1150f:	68 77 93 01 00       	push   $0x19377
   11514:	e8 33 7a 00 00       	call   18f4c <log_printf>
   11519:	83 c4 10             	add    $0x10,%esp
        return err;
   1151c:	8b 45 f4             	mov    -0xc(%ebp),%eax
   1151f:	e9 ed 00 00 00       	jmp    11611 <task_init+0x128>
    }
    task->pid = (uint32_t) task;
   11524:	8b 55 08             	mov    0x8(%ebp),%edx
   11527:	8b 45 08             	mov    0x8(%ebp),%eax
   1152a:	89 50 04             	mov    %edx,0x4(%eax)
    task->heap_start = 0;
   1152d:	8b 45 08             	mov    0x8(%ebp),%eax
   11530:	c7 40 08 00 00 00 00 	movl   $0x0,0x8(%eax)
    task->heap_end = 0;
   11537:	8b 45 08             	mov    0x8(%ebp),%eax
   1153a:	c7 40 0c 00 00 00 00 	movl   $0x0,0xc(%eax)
    task->parent = (task_t*)0;
   11541:	8b 45 08             	mov    0x8(%ebp),%eax
   11544:	c7 80 28 02 00 00 00 	movl   $0x0,0x228(%eax)
   1154b:	00 00 00 
    task->sleep_ticks = 0;
   1154e:	8b 45 08             	mov    0x8(%ebp),%eax
   11551:	c7 80 4c 02 00 00 00 	movl   $0x0,0x24c(%eax)
   11558:	00 00 00 
    task->time_ticks = TASK_TIME_TICKS;
   1155b:	8b 45 08             	mov    0x8(%ebp),%eax
   1155e:	c7 80 54 02 00 00 0a 	movl   $0xa,0x254(%eax)
   11565:	00 00 00 
    task->slice_ticks = task->time_ticks;
   11568:	8b 45 08             	mov    0x8(%ebp),%eax
   1156b:	8b 90 54 02 00 00    	mov    0x254(%eax),%edx
   11571:	8b 45 08             	mov    0x8(%ebp),%eax
   11574:	89 90 50 02 00 00    	mov    %edx,0x250(%eax)
    task->status = 0;
   1157a:	8b 45 08             	mov    0x8(%ebp),%eax
   1157d:	c7 80 58 02 00 00 00 	movl   $0x0,0x258(%eax)
   11584:	00 00 00 
    kernel_strncpy(task->name, name, TASK_NAME_SIZE);
   11587:	8b 45 08             	mov    0x8(%ebp),%eax
   1158a:	05 2c 02 00 00       	add    $0x22c,%eax
   1158f:	83 ec 04             	sub    $0x4,%esp
   11592:	6a 20                	push   $0x20
   11594:	ff 75 0c             	pushl  0xc(%ebp)
   11597:	50                   	push   %eax
   11598:	e8 91 72 00 00       	call   1882e <kernel_strncpy>
   1159d:	83 c4 10             	add    $0x10,%esp
    task->state = CREATE;
   115a0:	8b 45 08             	mov    0x8(%ebp),%eax
   115a3:	c7 00 00 00 00 00    	movl   $0x0,(%eax)
    list_node_init(&task->all_node);
   115a9:	8b 45 08             	mov    0x8(%ebp),%eax
   115ac:	83 c0 20             	add    $0x20,%eax
   115af:	83 ec 0c             	sub    $0xc,%esp
   115b2:	50                   	push   %eax
   115b3:	e8 63 fb ff ff       	call   1111b <list_node_init>
   115b8:	83 c4 10             	add    $0x10,%esp
    list_node_init(&task->wait_node);
   115bb:	8b 45 08             	mov    0x8(%ebp),%eax
   115be:	83 c0 18             	add    $0x18,%eax
   115c1:	83 ec 0c             	sub    $0xc,%esp
   115c4:	50                   	push   %eax
   115c5:	e8 51 fb ff ff       	call   1111b <list_node_init>
   115ca:	83 c4 10             	add    $0x10,%esp
    list_node_init(&task->run_node);
   115cd:	8b 45 08             	mov    0x8(%ebp),%eax
   115d0:	83 c0 10             	add    $0x10,%eax
   115d3:	83 ec 0c             	sub    $0xc,%esp
   115d6:	50                   	push   %eax
   115d7:	e8 3f fb ff ff       	call   1111b <list_node_init>
   115dc:	83 c4 10             	add    $0x10,%esp
    irq_state_t state =  enter_protection();
   115df:	e8 42 1e 00 00       	call   13426 <enter_protection>
   115e4:	89 45 f0             	mov    %eax,-0x10(%ebp)
    // 插入就绪队列中和所有的任务队列中
    
    list_insert_last(&task_manager.task_list, &task->all_node);
   115e7:	8b 45 08             	mov    0x8(%ebp),%eax
   115ea:	83 c0 20             	add    $0x20,%eax
   115ed:	83 ec 08             	sub    $0x8,%esp
   115f0:	50                   	push   %eax
   115f1:	68 4c fc 05 00       	push   $0x5fc4c
   115f6:	e8 c1 77 00 00       	call   18dbc <list_insert_last>
   115fb:	83 c4 10             	add    $0x10,%esp
    leave_protection(state);
   115fe:	83 ec 0c             	sub    $0xc,%esp
   11601:	ff 75 f0             	pushl  -0x10(%ebp)
   11604:	e8 35 1e 00 00       	call   1343e <leave_protection>
   11609:	83 c4 10             	add    $0x10,%esp
    return 0;
   1160c:	b8 00 00 00 00       	mov    $0x0,%eax
    //     *(--pesp) = 0;
    //     *(--pesp) = 0;
    //     *(--pesp) = 0;
    //     task->stack = pesp;
    // }
}
   11611:	c9                   	leave  
   11612:	c3                   	ret    

00011613 <task_start>:

void task_start(task_t* task)
{
   11613:	55                   	push   %ebp
   11614:	89 e5                	mov    %esp,%ebp
   11616:	83 ec 18             	sub    $0x18,%esp
    irq_state_t state =  enter_protection();
   11619:	e8 08 1e 00 00       	call   13426 <enter_protection>
   1161e:	89 45 f4             	mov    %eax,-0xc(%ebp)
    set_ready(task);
   11621:	83 ec 0c             	sub    $0xc,%esp
   11624:	ff 75 08             	pushl  0x8(%ebp)
   11627:	e8 b1 02 00 00       	call   118dd <set_ready>
   1162c:	83 c4 10             	add    $0x10,%esp
    leave_protection(state);
   1162f:	83 ec 0c             	sub    $0xc,%esp
   11632:	ff 75 f4             	pushl  -0xc(%ebp)
   11635:	e8 04 1e 00 00       	call   1343e <leave_protection>
   1163a:	83 c4 10             	add    $0x10,%esp
}
   1163d:	90                   	nop
   1163e:	c9                   	leave  
   1163f:	c3                   	ret    

00011640 <task_uninit>:
void task_uninit(task_t* task)
{
   11640:	55                   	push   %ebp
   11641:	89 e5                	mov    %esp,%ebp
   11643:	83 ec 08             	sub    $0x8,%esp
    if(task->tss.esp0)
   11646:	8b 45 08             	mov    0x8(%ebp),%eax
   11649:	8b 80 60 02 00 00    	mov    0x260(%eax),%eax
   1164f:	85 c0                	test   %eax,%eax
   11651:	74 1a                	je     1166d <task_uninit+0x2d>
        memory_free_page(task->tss.esp0 - MEM_PAGE_SIZE);
   11653:	8b 45 08             	mov    0x8(%ebp),%eax
   11656:	8b 80 60 02 00 00    	mov    0x260(%eax),%eax
   1165c:	2d 00 10 00 00       	sub    $0x1000,%eax
   11661:	83 ec 0c             	sub    $0xc,%esp
   11664:	50                   	push   %eax
   11665:	e8 36 f3 ff ff       	call   109a0 <memory_free_page>
   1166a:	83 c4 10             	add    $0x10,%esp
    if(task->tss_selector)
   1166d:	8b 45 08             	mov    0x8(%ebp),%eax
   11670:	0f b7 80 c4 02 00 00 	movzwl 0x2c4(%eax),%eax
   11677:	66 85 c0             	test   %ax,%ax
   1167a:	74 19                	je     11695 <task_uninit+0x55>
        gdt_free_tss(task->tss_selector);
   1167c:	8b 45 08             	mov    0x8(%ebp),%eax
   1167f:	0f b7 80 c4 02 00 00 	movzwl 0x2c4(%eax),%eax
   11686:	0f b7 c0             	movzwl %ax,%eax
   11689:	83 ec 0c             	sub    $0xc,%esp
   1168c:	50                   	push   %eax
   1168d:	e8 63 12 00 00       	call   128f5 <gdt_free_tss>
   11692:	83 c4 10             	add    $0x10,%esp
    if(task->tss.cr3)
   11695:	8b 45 08             	mov    0x8(%ebp),%eax
   11698:	8b 80 78 02 00 00    	mov    0x278(%eax),%eax
   1169e:	85 c0                	test   %eax,%eax
   116a0:	74 15                	je     116b7 <task_uninit+0x77>
        memory_destroy_uvm(task->tss.cr3);
   116a2:	8b 45 08             	mov    0x8(%ebp),%eax
   116a5:	8b 80 78 02 00 00    	mov    0x278(%eax),%eax
   116ab:	83 ec 0c             	sub    $0xc,%esp
   116ae:	50                   	push   %eax
   116af:	e8 ea f4 ff ff       	call   10b9e <memory_destroy_uvm>
   116b4:	83 c4 10             	add    $0x10,%esp
    kernel_memset((void*)task, 0, sizeof(task_t));
   116b7:	83 ec 04             	sub    $0x4,%esp
   116ba:	68 c8 02 00 00       	push   $0x2c8
   116bf:	6a 00                	push   $0x0
   116c1:	ff 75 08             	pushl  0x8(%ebp)
   116c4:	e8 d9 72 00 00       	call   189a2 <kernel_memset>
   116c9:	83 c4 10             	add    $0x10,%esp
    

}
   116cc:	90                   	nop
   116cd:	c9                   	leave  
   116ce:	c3                   	ret    

000116cf <task_switch_from_to>:

void task_switch_from_to(task_t* from, task_t* to){
   116cf:	55                   	push   %ebp
   116d0:	89 e5                	mov    %esp,%ebp
    // log_printf("task switch -----\r\n");
    far_jump(to->tss_selector, 0);
   116d2:	8b 45 0c             	mov    0xc(%ebp),%eax
   116d5:	0f b7 80 c4 02 00 00 	movzwl 0x2c4(%eax),%eax
   116dc:	0f b7 c0             	movzwl %ax,%eax
   116df:	6a 00                	push   $0x0
   116e1:	50                   	push   %eax
   116e2:	e8 fc f9 ff ff       	call   110e3 <far_jump>
   116e7:	83 c4 08             	add    $0x8,%esp
    // simple_switch(&from->stack, to->stack);
}
   116ea:	90                   	nop
   116eb:	c9                   	leave  
   116ec:	c3                   	ret    

000116ed <idle_task_func>:

void idle_task_func(void){
   116ed:	55                   	push   %ebp
   116ee:	89 e5                	mov    %esp,%ebp
    for(;;){
        hlt();
   116f0:	e8 08 fa ff ff       	call   110fd <hlt>
   116f5:	eb f9                	jmp    116f0 <idle_task_func+0x3>

000116f7 <task_manager_init>:
    }
}
void task_manager_init(void)
{
   116f7:	55                   	push   %ebp
   116f8:	89 e5                	mov    %esp,%ebp
   116fa:	83 ec 18             	sub    $0x18,%esp
    kernel_memset((void*)task_table, 0, sizeof(task_table));
   116fd:	83 ec 04             	sub    $0x4,%esp
   11700:	68 00 64 01 00       	push   $0x16400
   11705:	6a 00                	push   $0x0
   11707:	68 20 f0 01 00       	push   $0x1f020
   1170c:	e8 91 72 00 00       	call   189a2 <kernel_memset>
   11711:	83 c4 10             	add    $0x10,%esp
    mutex_init(&task_table_mutex);
   11714:	83 ec 0c             	sub    $0xc,%esp
   11717:	68 00 f0 01 00       	push   $0x1f000
   1171c:	e8 35 6b 00 00       	call   18256 <mutex_init>
   11721:	83 c4 10             	add    $0x10,%esp
    uint32_t sel =  gdt_alloc_desc();
   11724:	e8 57 11 00 00       	call   12880 <gdt_alloc_desc>
   11729:	89 45 f4             	mov    %eax,-0xc(%ebp)
    segment_desc_set(sel, (uint32_t)0, 0xFFFFFFFF, 
   1172c:	8b 45 f4             	mov    -0xc(%ebp),%eax
   1172f:	68 fa 40 00 00       	push   $0x40fa
   11734:	6a ff                	push   $0xffffffff
   11736:	6a 00                	push   $0x0
   11738:	50                   	push   %eax
   11739:	e8 d3 0f 00 00       	call   12711 <segment_desc_set>
   1173e:	83 c4 10             	add    $0x10,%esp
    SEG_DPL3|SEG_P_PRESENT|SEG_S_NORMAL|SEG_TYPE_CODE|SEG_TYPE_RW|SEG_D);
    task_manager.app_code_sel = sel;
   11741:	8b 45 f4             	mov    -0xc(%ebp),%eax
   11744:	a3 f8 01 06 00       	mov    %eax,0x601f8
    sel = gdt_alloc_desc();
   11749:	e8 32 11 00 00       	call   12880 <gdt_alloc_desc>
   1174e:	89 45 f4             	mov    %eax,-0xc(%ebp)
    segment_desc_set(sel, (uint32_t)0, 0xFFFFFFFF, 
   11751:	8b 45 f4             	mov    -0xc(%ebp),%eax
   11754:	68 f2 40 00 00       	push   $0x40f2
   11759:	6a ff                	push   $0xffffffff
   1175b:	6a 00                	push   $0x0
   1175d:	50                   	push   %eax
   1175e:	e8 ae 0f 00 00       	call   12711 <segment_desc_set>
   11763:	83 c4 10             	add    $0x10,%esp
    SEG_DPL3|SEG_P_PRESENT|SEG_S_NORMAL|SEG_TYPE_DATA|SEG_TYPE_RW|SEG_D);
    task_manager.app_data_sel = sel;
   11766:	8b 45 f4             	mov    -0xc(%ebp),%eax
   11769:	a3 fc 01 06 00       	mov    %eax,0x601fc
    list_init(&(task_manager.ready_list));
   1176e:	83 ec 0c             	sub    $0xc,%esp
   11771:	68 40 fc 05 00       	push   $0x5fc40
   11776:	e8 bd 75 00 00       	call   18d38 <list_init>
   1177b:	83 c4 10             	add    $0x10,%esp
    list_init(&(task_manager.task_list));
   1177e:	83 ec 0c             	sub    $0xc,%esp
   11781:	68 4c fc 05 00       	push   $0x5fc4c
   11786:	e8 ad 75 00 00       	call   18d38 <list_init>
   1178b:	83 c4 10             	add    $0x10,%esp
    list_init(&task_manager.sleep_list);
   1178e:	83 ec 0c             	sub    $0xc,%esp
   11791:	68 58 fc 05 00       	push   $0x5fc58
   11796:	e8 9d 75 00 00       	call   18d38 <list_init>
   1179b:	83 c4 10             	add    $0x10,%esp
    task_manager.curr_task = (task_t*) 0;
   1179e:	c7 05 64 fc 05 00 00 	movl   $0x0,0x5fc64
   117a5:	00 00 00 
    task_init(&task_manager.idle_task, 
   117a8:	ba fc ef 01 00       	mov    $0x1effc,%edx
   117ad:	b8 ed 16 01 00       	mov    $0x116ed,%eax
   117b2:	83 ec 0c             	sub    $0xc,%esp
   117b5:	6a 01                	push   $0x1
   117b7:	52                   	push   %edx
   117b8:	50                   	push   %eax
   117b9:	68 8a 93 01 00       	push   $0x1938a
   117be:	68 30 ff 05 00       	push   $0x5ff30
   117c3:	e8 21 fd ff ff       	call   114e9 <task_init>
   117c8:	83 c4 20             	add    $0x20,%esp
    "idle_task", (uint32_t)idle_task_func, (uint32_t)&idle_stack[1023], TASK_SYSTEM_FLAG);
    task_start(&task_manager.idle_task);
   117cb:	83 ec 0c             	sub    $0xc,%esp
   117ce:	68 30 ff 05 00       	push   $0x5ff30
   117d3:	e8 3b fe ff ff       	call   11613 <task_start>
   117d8:	83 c4 10             	add    $0x10,%esp
}
   117db:	90                   	nop
   117dc:	c9                   	leave  
   117dd:	c3                   	ret    

000117de <first_task_init>:


void first_task_init(void)
{
   117de:	55                   	push   %ebp
   117df:	89 e5                	mov    %esp,%ebp
   117e1:	83 ec 18             	sub    $0x18,%esp
    extern void _first_task_entry(void);
    extern uint8_t s_first_task[], e_first_task[];
    uint32_t first_task = (uint32_t)_first_task_entry;
   117e4:	c7 45 f4 00 00 00 80 	movl   $0x80000000,-0xc(%ebp)
    uint32_t size = (uint32_t)(e_first_task - s_first_task);
   117eb:	ba e7 05 06 00       	mov    $0x605e7,%edx
   117f0:	b8 04 02 06 00       	mov    $0x60204,%eax
   117f5:	29 c2                	sub    %eax,%edx
   117f7:	89 d0                	mov    %edx,%eax
   117f9:	89 45 f0             	mov    %eax,-0x10(%ebp)
    uint32_t alloc_size = 10 * MEM_PAGE_SIZE;
   117fc:	c7 45 ec 00 a0 00 00 	movl   $0xa000,-0x14(%ebp)
    Assert(alloc_size > size);
   11803:	8b 45 ec             	mov    -0x14(%ebp),%eax
   11806:	3b 45 f0             	cmp    -0x10(%ebp),%eax
   11809:	77 1c                	ja     11827 <first_task_init+0x49>
   1180b:	68 94 93 01 00       	push   $0x19394
   11810:	68 c8 94 01 00       	push   $0x194c8
   11815:	68 c1 00 00 00       	push   $0xc1
   1181a:	68 a8 93 01 00       	push   $0x193a8
   1181f:	e8 cb 74 00 00       	call   18cef <pannic>
   11824:	83 c4 10             	add    $0x10,%esp
    task_init(&task_manager.first_task, "init_main", first_task, first_task + alloc_size, 0);
   11827:	8b 55 f4             	mov    -0xc(%ebp),%edx
   1182a:	8b 45 ec             	mov    -0x14(%ebp),%eax
   1182d:	01 d0                	add    %edx,%eax
   1182f:	83 ec 0c             	sub    $0xc,%esp
   11832:	6a 00                	push   $0x0
   11834:	50                   	push   %eax
   11835:	ff 75 f4             	pushl  -0xc(%ebp)
   11838:	68 f3 93 01 00       	push   $0x193f3
   1183d:	68 68 fc 05 00       	push   $0x5fc68
   11842:	e8 a2 fc ff ff       	call   114e9 <task_init>
   11847:	83 c4 20             	add    $0x20,%esp
    task_manager.first_task.heap_start = (uint32_t)e_first_task;
   1184a:	b8 e7 05 06 00       	mov    $0x605e7,%eax
   1184f:	a3 70 fc 05 00       	mov    %eax,0x5fc70
    task_manager.first_task.heap_end = (uint32_t)e_first_task;
   11854:	b8 e7 05 06 00       	mov    $0x605e7,%eax
   11859:	a3 74 fc 05 00       	mov    %eax,0x5fc74
    task_manager.curr_task = &task_manager.first_task;
   1185e:	c7 05 64 fc 05 00 68 	movl   $0x5fc68,0x5fc64
   11865:	fc 05 00 
    mmu_set_page_dir(task_manager.curr_task->tss.cr3);
   11868:	a1 64 fc 05 00       	mov    0x5fc64,%eax
   1186d:	8b 80 78 02 00 00    	mov    0x278(%eax),%eax
   11873:	83 ec 0c             	sub    $0xc,%esp
   11876:	50                   	push   %eax
   11877:	e8 cf f8 ff ff       	call   1114b <mmu_set_page_dir>
   1187c:	83 c4 10             	add    $0x10,%esp
    memory_alloc_for_page(first_task, alloc_size, PTE_P|PTE_W|PTE_U);
   1187f:	83 ec 04             	sub    $0x4,%esp
   11882:	6a 07                	push   $0x7
   11884:	ff 75 ec             	pushl  -0x14(%ebp)
   11887:	ff 75 f4             	pushl  -0xc(%ebp)
   1188a:	e8 21 f0 ff ff       	call   108b0 <memory_alloc_for_page>
   1188f:	83 c4 10             	add    $0x10,%esp
    kernel_memcpy((void*)first_task, (void*)s_first_task, size);
   11892:	8b 55 f0             	mov    -0x10(%ebp),%edx
   11895:	8b 45 f4             	mov    -0xc(%ebp),%eax
   11898:	83 ec 04             	sub    $0x4,%esp
   1189b:	52                   	push   %edx
   1189c:	68 04 02 06 00       	push   $0x60204
   118a1:	50                   	push   %eax
   118a2:	e8 ac 70 00 00       	call   18953 <kernel_memcpy>
   118a7:	83 c4 10             	add    $0x10,%esp
    ltr(task_manager.first_task.tss_selector);
   118aa:	0f b7 05 2c ff 05 00 	movzwl 0x5ff2c,%eax
   118b1:	0f b7 c0             	movzwl %ax,%eax
   118b4:	83 ec 0c             	sub    $0xc,%esp
   118b7:	50                   	push   %eax
   118b8:	e8 47 f8 ff ff       	call   11104 <ltr>
   118bd:	83 c4 10             	add    $0x10,%esp
    task_start(&task_manager.first_task);
   118c0:	83 ec 0c             	sub    $0xc,%esp
   118c3:	68 68 fc 05 00       	push   $0x5fc68
   118c8:	e8 46 fd ff ff       	call   11613 <task_start>
   118cd:	83 c4 10             	add    $0x10,%esp
}
   118d0:	90                   	nop
   118d1:	c9                   	leave  
   118d2:	c3                   	ret    

000118d3 <task_first_task>:

task_t* task_first_task(void)
{
   118d3:	55                   	push   %ebp
   118d4:	89 e5                	mov    %esp,%ebp
    return &task_manager.first_task;
   118d6:	b8 68 fc 05 00       	mov    $0x5fc68,%eax
}
   118db:	5d                   	pop    %ebp
   118dc:	c3                   	ret    

000118dd <set_ready>:

void set_ready(task_t* task){
   118dd:	55                   	push   %ebp
   118de:	89 e5                	mov    %esp,%ebp
   118e0:	83 ec 08             	sub    $0x8,%esp
    if(task == &task_manager.idle_task)
   118e3:	81 7d 08 30 ff 05 00 	cmpl   $0x5ff30,0x8(%ebp)
   118ea:	74 22                	je     1190e <set_ready+0x31>
        return;
    list_insert_last(&task_manager.ready_list, &task->run_node);
   118ec:	8b 45 08             	mov    0x8(%ebp),%eax
   118ef:	83 c0 10             	add    $0x10,%eax
   118f2:	83 ec 08             	sub    $0x8,%esp
   118f5:	50                   	push   %eax
   118f6:	68 40 fc 05 00       	push   $0x5fc40
   118fb:	e8 bc 74 00 00       	call   18dbc <list_insert_last>
   11900:	83 c4 10             	add    $0x10,%esp
    task->state = READY;
   11903:	8b 45 08             	mov    0x8(%ebp),%eax
   11906:	c7 00 02 00 00 00    	movl   $0x2,(%eax)
   1190c:	eb 01                	jmp    1190f <set_ready+0x32>
        return;
   1190e:	90                   	nop
}
   1190f:	c9                   	leave  
   11910:	c3                   	ret    

00011911 <set_block>:

void set_block(task_t* task)
{
   11911:	55                   	push   %ebp
   11912:	89 e5                	mov    %esp,%ebp
   11914:	83 ec 08             	sub    $0x8,%esp
    if(task == &task_manager.idle_task)
   11917:	81 7d 08 30 ff 05 00 	cmpl   $0x5ff30,0x8(%ebp)
   1191e:	74 19                	je     11939 <set_block+0x28>
        return;
    list_remove(&task_manager.ready_list, &task->run_node);
   11920:	8b 45 08             	mov    0x8(%ebp),%eax
   11923:	83 c0 10             	add    $0x10,%eax
   11926:	83 ec 08             	sub    $0x8,%esp
   11929:	50                   	push   %eax
   1192a:	68 40 fc 05 00       	push   $0x5fc40
   1192f:	e8 64 75 00 00       	call   18e98 <list_remove>
   11934:	83 c4 10             	add    $0x10,%esp
   11937:	eb 01                	jmp    1193a <set_block+0x29>
        return;
   11939:	90                   	nop
}
   1193a:	c9                   	leave  
   1193b:	c3                   	ret    

0001193c <sys_shed_yield>:
/**
 * @brief 当前任务主动放弃CPU
 */
void sys_shed_yield(void)
{
   1193c:	55                   	push   %ebp
   1193d:	89 e5                	mov    %esp,%ebp
   1193f:	83 ec 18             	sub    $0x18,%esp
    irq_state_t state =  enter_protection();
   11942:	e8 df 1a 00 00       	call   13426 <enter_protection>
   11947:	89 45 f4             	mov    %eax,-0xc(%ebp)
    if(list_count(&task_manager.ready_list) > 1){
   1194a:	83 ec 0c             	sub    $0xc,%esp
   1194d:	68 40 fc 05 00       	push   $0x5fc40
   11952:	e8 df f7 ff ff       	call   11136 <list_count>
   11957:	83 c4 10             	add    $0x10,%esp
   1195a:	83 f8 01             	cmp    $0x1,%eax
   1195d:	7e 29                	jle    11988 <sys_shed_yield+0x4c>
        task_t * curr = current_task();
   1195f:	e8 bc 00 00 00       	call   11a20 <current_task>
   11964:	89 45 f0             	mov    %eax,-0x10(%ebp)
        // 如果队列中还有其它任务，则将当前任务移入到队列尾部
        set_block(curr);
   11967:	83 ec 0c             	sub    $0xc,%esp
   1196a:	ff 75 f0             	pushl  -0x10(%ebp)
   1196d:	e8 9f ff ff ff       	call   11911 <set_block>
   11972:	83 c4 10             	add    $0x10,%esp
        set_ready(curr);
   11975:	83 ec 0c             	sub    $0xc,%esp
   11978:	ff 75 f0             	pushl  -0x10(%ebp)
   1197b:	e8 5d ff ff ff       	call   118dd <set_ready>
   11980:	83 c4 10             	add    $0x10,%esp
        // 切换至下一个任务，在切换完成前要保护，不然可能下一任务
        // 由于某些原因运行后阻塞或删除，再回到这里切换将发生问题
        task_dispatch();
   11983:	e8 56 00 00 00       	call   119de <task_dispatch>
        
    }
    leave_protection(state);
   11988:	83 ec 0c             	sub    $0xc,%esp
   1198b:	ff 75 f4             	pushl  -0xc(%ebp)
   1198e:	e8 ab 1a 00 00       	call   1343e <leave_protection>
   11993:	83 c4 10             	add    $0x10,%esp

    
}
   11996:	90                   	nop
   11997:	c9                   	leave  
   11998:	c3                   	ret    

00011999 <task_next_run>:
task_t* task_next_run(void){
   11999:	55                   	push   %ebp
   1199a:	89 e5                	mov    %esp,%ebp
    if(list_count(&task_manager.ready_list) == 0)
   1199c:	68 40 fc 05 00       	push   $0x5fc40
   119a1:	e8 90 f7 ff ff       	call   11136 <list_count>
   119a6:	83 c4 04             	add    $0x4,%esp
   119a9:	85 c0                	test   %eax,%eax
   119ab:	75 07                	jne    119b4 <task_next_run+0x1b>
        return &task_manager.idle_task;
   119ad:	b8 30 ff 05 00       	mov    $0x5ff30,%eax
   119b2:	eb 28                	jmp    119dc <task_next_run+0x43>

    return LIST_NODE_PARENT(list_first(&task_manager.ready_list), task_t, run_node);
   119b4:	68 40 fc 05 00       	push   $0x5fc40
   119b9:	e8 83 f7 ff ff       	call   11141 <list_first>
   119be:	83 c4 04             	add    $0x4,%esp
   119c1:	85 c0                	test   %eax,%eax
   119c3:	74 12                	je     119d7 <task_next_run+0x3e>
   119c5:	68 40 fc 05 00       	push   $0x5fc40
   119ca:	e8 72 f7 ff ff       	call   11141 <list_first>
   119cf:	83 c4 04             	add    $0x4,%esp
   119d2:	83 e8 10             	sub    $0x10,%eax
   119d5:	eb 05                	jmp    119dc <task_next_run+0x43>
   119d7:	b8 00 00 00 00       	mov    $0x0,%eax
}
   119dc:	c9                   	leave  
   119dd:	c3                   	ret    

000119de <task_dispatch>:
void task_dispatch(void){
   119de:	55                   	push   %ebp
   119df:	89 e5                	mov    %esp,%ebp
   119e1:	83 ec 10             	sub    $0x10,%esp
    // irq_state_t state =  enter_protection();
    task_t* to = task_next_run();
   119e4:	e8 b0 ff ff ff       	call   11999 <task_next_run>
   119e9:	89 45 fc             	mov    %eax,-0x4(%ebp)
    if(to != task_manager.curr_task){
   119ec:	a1 64 fc 05 00       	mov    0x5fc64,%eax
   119f1:	39 45 fc             	cmp    %eax,-0x4(%ebp)
   119f4:	74 27                	je     11a1d <task_dispatch+0x3f>
        task_t * from = task_manager.curr_task;
   119f6:	a1 64 fc 05 00       	mov    0x5fc64,%eax
   119fb:	89 45 f8             	mov    %eax,-0x8(%ebp)
        task_manager.curr_task = to;
   119fe:	8b 45 fc             	mov    -0x4(%ebp),%eax
   11a01:	a3 64 fc 05 00       	mov    %eax,0x5fc64
        to -> state = RUNNING;
   11a06:	8b 45 fc             	mov    -0x4(%ebp),%eax
   11a09:	c7 00 01 00 00 00    	movl   $0x1,(%eax)
        // leave_protection(state);
        task_switch_from_to(from, to);
   11a0f:	ff 75 fc             	pushl  -0x4(%ebp)
   11a12:	ff 75 f8             	pushl  -0x8(%ebp)
   11a15:	e8 b5 fc ff ff       	call   116cf <task_switch_from_to>
   11a1a:	83 c4 08             	add    $0x8,%esp
        
    }
    // leave_protection(state);
}
   11a1d:	90                   	nop
   11a1e:	c9                   	leave  
   11a1f:	c3                   	ret    

00011a20 <current_task>:
task_t * current_task(void){
   11a20:	55                   	push   %ebp
   11a21:	89 e5                	mov    %esp,%ebp
    return task_manager.curr_task;
   11a23:	a1 64 fc 05 00       	mov    0x5fc64,%eax
}
   11a28:	5d                   	pop    %ebp
   11a29:	c3                   	ret    

00011a2a <task_time_tick>:

void task_time_tick(void)
{
   11a2a:	55                   	push   %ebp
   11a2b:	89 e5                	mov    %esp,%ebp
   11a2d:	83 ec 28             	sub    $0x28,%esp
    
    task_t* curr_task = current_task();
   11a30:	e8 eb ff ff ff       	call   11a20 <current_task>
   11a35:	89 45 f0             	mov    %eax,-0x10(%ebp)
    irq_state_t state =  enter_protection();
   11a38:	e8 e9 19 00 00       	call   13426 <enter_protection>
   11a3d:	89 45 ec             	mov    %eax,-0x14(%ebp)
    if(--curr_task->slice_ticks == 0){
   11a40:	8b 45 f0             	mov    -0x10(%ebp),%eax
   11a43:	8b 80 50 02 00 00    	mov    0x250(%eax),%eax
   11a49:	8d 50 ff             	lea    -0x1(%eax),%edx
   11a4c:	8b 45 f0             	mov    -0x10(%ebp),%eax
   11a4f:	89 90 50 02 00 00    	mov    %edx,0x250(%eax)
   11a55:	8b 45 f0             	mov    -0x10(%ebp),%eax
   11a58:	8b 80 50 02 00 00    	mov    0x250(%eax),%eax
   11a5e:	85 c0                	test   %eax,%eax
   11a60:	75 2e                	jne    11a90 <task_time_tick+0x66>
        curr_task->slice_ticks = curr_task->time_ticks;
   11a62:	8b 45 f0             	mov    -0x10(%ebp),%eax
   11a65:	8b 90 54 02 00 00    	mov    0x254(%eax),%edx
   11a6b:	8b 45 f0             	mov    -0x10(%ebp),%eax
   11a6e:	89 90 50 02 00 00    	mov    %edx,0x250(%eax)
        // 调整队列的位置到尾部，不用直接操作队列
        set_block(curr_task);
   11a74:	83 ec 0c             	sub    $0xc,%esp
   11a77:	ff 75 f0             	pushl  -0x10(%ebp)
   11a7a:	e8 92 fe ff ff       	call   11911 <set_block>
   11a7f:	83 c4 10             	add    $0x10,%esp
        set_ready(curr_task);
   11a82:	83 ec 0c             	sub    $0xc,%esp
   11a85:	ff 75 f0             	pushl  -0x10(%ebp)
   11a88:	e8 50 fe ff ff       	call   118dd <set_ready>
   11a8d:	83 c4 10             	add    $0x10,%esp
    }

    
    list_node_t* curr = list_first(&task_manager.sleep_list);
   11a90:	83 ec 0c             	sub    $0xc,%esp
   11a93:	68 58 fc 05 00       	push   $0x5fc58
   11a98:	e8 a4 f6 ff ff       	call   11141 <list_first>
   11a9d:	83 c4 10             	add    $0x10,%esp
   11aa0:	89 45 f4             	mov    %eax,-0xc(%ebp)
    while(curr){
   11aa3:	eb 63                	jmp    11b08 <task_time_tick+0xde>
        list_node_t* next = curr->next;
   11aa5:	8b 45 f4             	mov    -0xc(%ebp),%eax
   11aa8:	8b 40 04             	mov    0x4(%eax),%eax
   11aab:	89 45 e8             	mov    %eax,-0x18(%ebp)
        task_t* temp =  LIST_NODE_PARENT(curr, task_t, run_node);
   11aae:	83 7d f4 00          	cmpl   $0x0,-0xc(%ebp)
   11ab2:	74 08                	je     11abc <task_time_tick+0x92>
   11ab4:	8b 45 f4             	mov    -0xc(%ebp),%eax
   11ab7:	83 e8 10             	sub    $0x10,%eax
   11aba:	eb 05                	jmp    11ac1 <task_time_tick+0x97>
   11abc:	b8 00 00 00 00       	mov    $0x0,%eax
   11ac1:	89 45 e4             	mov    %eax,-0x1c(%ebp)
        if((--temp->sleep_ticks == 0))
   11ac4:	8b 45 e4             	mov    -0x1c(%ebp),%eax
   11ac7:	8b 80 4c 02 00 00    	mov    0x24c(%eax),%eax
   11acd:	8d 50 ff             	lea    -0x1(%eax),%edx
   11ad0:	8b 45 e4             	mov    -0x1c(%ebp),%eax
   11ad3:	89 90 4c 02 00 00    	mov    %edx,0x24c(%eax)
   11ad9:	8b 45 e4             	mov    -0x1c(%ebp),%eax
   11adc:	8b 80 4c 02 00 00    	mov    0x24c(%eax),%eax
   11ae2:	85 c0                	test   %eax,%eax
   11ae4:	75 1c                	jne    11b02 <task_time_tick+0xd8>
        {
            set_wake(temp);
   11ae6:	83 ec 0c             	sub    $0xc,%esp
   11ae9:	ff 75 e4             	pushl  -0x1c(%ebp)
   11aec:	e8 70 00 00 00       	call   11b61 <set_wake>
   11af1:	83 c4 10             	add    $0x10,%esp
            set_ready(temp);
   11af4:	83 ec 0c             	sub    $0xc,%esp
   11af7:	ff 75 e4             	pushl  -0x1c(%ebp)
   11afa:	e8 de fd ff ff       	call   118dd <set_ready>
   11aff:	83 c4 10             	add    $0x10,%esp
        }
        curr = next;
   11b02:	8b 45 e8             	mov    -0x18(%ebp),%eax
   11b05:	89 45 f4             	mov    %eax,-0xc(%ebp)
    while(curr){
   11b08:	83 7d f4 00          	cmpl   $0x0,-0xc(%ebp)
   11b0c:	75 97                	jne    11aa5 <task_time_tick+0x7b>
    }
    leave_protection(state);
   11b0e:	83 ec 0c             	sub    $0xc,%esp
   11b11:	ff 75 ec             	pushl  -0x14(%ebp)
   11b14:	e8 25 19 00 00       	call   1343e <leave_protection>
   11b19:	83 c4 10             	add    $0x10,%esp
    task_dispatch();
   11b1c:	e8 bd fe ff ff       	call   119de <task_dispatch>
}
   11b21:	90                   	nop
   11b22:	c9                   	leave  
   11b23:	c3                   	ret    

00011b24 <set_sleep>:

void set_sleep(task_t* task, int ticks)
{
   11b24:	55                   	push   %ebp
   11b25:	89 e5                	mov    %esp,%ebp
   11b27:	83 ec 08             	sub    $0x8,%esp
    if(ticks == 0)
   11b2a:	83 7d 0c 00          	cmpl   $0x0,0xc(%ebp)
   11b2e:	74 2e                	je     11b5e <set_sleep+0x3a>
        return;
    task->state = SLEEPING;
   11b30:	8b 45 08             	mov    0x8(%ebp),%eax
   11b33:	c7 00 03 00 00 00    	movl   $0x3,(%eax)
    task->sleep_ticks = ticks;
   11b39:	8b 45 08             	mov    0x8(%ebp),%eax
   11b3c:	8b 55 0c             	mov    0xc(%ebp),%edx
   11b3f:	89 90 4c 02 00 00    	mov    %edx,0x24c(%eax)
    list_insert_last(&task_manager.sleep_list, &task->run_node);
   11b45:	8b 45 08             	mov    0x8(%ebp),%eax
   11b48:	83 c0 10             	add    $0x10,%eax
   11b4b:	83 ec 08             	sub    $0x8,%esp
   11b4e:	50                   	push   %eax
   11b4f:	68 58 fc 05 00       	push   $0x5fc58
   11b54:	e8 63 72 00 00       	call   18dbc <list_insert_last>
   11b59:	83 c4 10             	add    $0x10,%esp
   11b5c:	eb 01                	jmp    11b5f <set_sleep+0x3b>
        return;
   11b5e:	90                   	nop
    
}
   11b5f:	c9                   	leave  
   11b60:	c3                   	ret    

00011b61 <set_wake>:
void set_wake(task_t* task)
{
   11b61:	55                   	push   %ebp
   11b62:	89 e5                	mov    %esp,%ebp
   11b64:	83 ec 08             	sub    $0x8,%esp
    list_remove(&task_manager.sleep_list, &task->run_node);
   11b67:	8b 45 08             	mov    0x8(%ebp),%eax
   11b6a:	83 c0 10             	add    $0x10,%eax
   11b6d:	83 ec 08             	sub    $0x8,%esp
   11b70:	50                   	push   %eax
   11b71:	68 58 fc 05 00       	push   $0x5fc58
   11b76:	e8 1d 73 00 00       	call   18e98 <list_remove>
   11b7b:	83 c4 10             	add    $0x10,%esp
}
   11b7e:	90                   	nop
   11b7f:	c9                   	leave  
   11b80:	c3                   	ret    

00011b81 <sys_sleep>:
void sys_sleep(uint32_t ms)
{
   11b81:	55                   	push   %ebp
   11b82:	89 e5                	mov    %esp,%ebp
   11b84:	83 ec 18             	sub    $0x18,%esp
    uint32_t state =  enter_protection();
   11b87:	e8 9a 18 00 00       	call   13426 <enter_protection>
   11b8c:	89 45 f4             	mov    %eax,-0xc(%ebp)
    set_block(task_manager.curr_task);
   11b8f:	a1 64 fc 05 00       	mov    0x5fc64,%eax
   11b94:	83 ec 0c             	sub    $0xc,%esp
   11b97:	50                   	push   %eax
   11b98:	e8 74 fd ff ff       	call   11911 <set_block>
   11b9d:	83 c4 10             	add    $0x10,%esp
    set_sleep(task_manager.curr_task, (ms + TASK_TIME_TICKS - 1)/ TASK_TIME_TICKS);
   11ba0:	8b 45 08             	mov    0x8(%ebp),%eax
   11ba3:	83 c0 09             	add    $0x9,%eax
   11ba6:	ba cd cc cc cc       	mov    $0xcccccccd,%edx
   11bab:	f7 e2                	mul    %edx
   11bad:	89 d0                	mov    %edx,%eax
   11baf:	c1 e8 03             	shr    $0x3,%eax
   11bb2:	89 c2                	mov    %eax,%edx
   11bb4:	a1 64 fc 05 00       	mov    0x5fc64,%eax
   11bb9:	83 ec 08             	sub    $0x8,%esp
   11bbc:	52                   	push   %edx
   11bbd:	50                   	push   %eax
   11bbe:	e8 61 ff ff ff       	call   11b24 <set_sleep>
   11bc3:	83 c4 10             	add    $0x10,%esp
    
    task_dispatch();
   11bc6:	e8 13 fe ff ff       	call   119de <task_dispatch>
    leave_protection(state);
   11bcb:	83 ec 0c             	sub    $0xc,%esp
   11bce:	ff 75 f4             	pushl  -0xc(%ebp)
   11bd1:	e8 68 18 00 00       	call   1343e <leave_protection>
   11bd6:	83 c4 10             	add    $0x10,%esp
    
}
   11bd9:	90                   	nop
   11bda:	c9                   	leave  
   11bdb:	c3                   	ret    

00011bdc <sys_getpid>:

uint32_t sys_getpid(void)
{
   11bdc:	55                   	push   %ebp
   11bdd:	89 e5                	mov    %esp,%ebp
    return task_manager.curr_task->pid;
   11bdf:	a1 64 fc 05 00       	mov    0x5fc64,%eax
   11be4:	8b 40 04             	mov    0x4(%eax),%eax
}
   11be7:	5d                   	pop    %ebp
   11be8:	c3                   	ret    

00011be9 <sys_print_msg>:

int sys_print_msg (char * fmt, int arg) {
   11be9:	55                   	push   %ebp
   11bea:	89 e5                	mov    %esp,%ebp
   11bec:	83 ec 08             	sub    $0x8,%esp
	log_printf(fmt, arg);
   11bef:	83 ec 08             	sub    $0x8,%esp
   11bf2:	ff 75 0c             	pushl  0xc(%ebp)
   11bf5:	ff 75 08             	pushl  0x8(%ebp)
   11bf8:	e8 4f 73 00 00       	call   18f4c <log_printf>
   11bfd:	83 c4 10             	add    $0x10,%esp
}
   11c00:	90                   	nop
   11c01:	c9                   	leave  
   11c02:	c3                   	ret    

00011c03 <copy_open_files>:

void copy_open_files(task_t* child)
{
   11c03:	55                   	push   %ebp
   11c04:	89 e5                	mov    %esp,%ebp
   11c06:	83 ec 18             	sub    $0x18,%esp
    task_t* task = task_manager.curr_task;
   11c09:	a1 64 fc 05 00       	mov    0x5fc64,%eax
   11c0e:	89 45 f0             	mov    %eax,-0x10(%ebp)
    mutex_lock(&task_table_mutex);
   11c11:	83 ec 0c             	sub    $0xc,%esp
   11c14:	68 00 f0 01 00       	push   $0x1f000
   11c19:	e8 66 66 00 00       	call   18284 <mutex_lock>
   11c1e:	83 c4 10             	add    $0x10,%esp
    for(int i = 0; i < TASK_OFILE_NR; ++i)
   11c21:	c7 45 f4 00 00 00 00 	movl   $0x0,-0xc(%ebp)
   11c28:	eb 38                	jmp    11c62 <copy_open_files+0x5f>
    {   file_t * file = task->file_table[i];
   11c2a:	8b 45 f0             	mov    -0x10(%ebp),%eax
   11c2d:	8b 55 f4             	mov    -0xc(%ebp),%edx
   11c30:	83 c2 08             	add    $0x8,%edx
   11c33:	8b 44 90 08          	mov    0x8(%eax,%edx,4),%eax
   11c37:	89 45 ec             	mov    %eax,-0x14(%ebp)
        if(file)
   11c3a:	83 7d ec 00          	cmpl   $0x0,-0x14(%ebp)
   11c3e:	74 1e                	je     11c5e <copy_open_files+0x5b>
        {
            child->file_table[i] = file;
   11c40:	8b 45 08             	mov    0x8(%ebp),%eax
   11c43:	8b 55 f4             	mov    -0xc(%ebp),%edx
   11c46:	8d 4a 08             	lea    0x8(%edx),%ecx
   11c49:	8b 55 ec             	mov    -0x14(%ebp),%edx
   11c4c:	89 54 88 08          	mov    %edx,0x8(%eax,%ecx,4)
            ref_inc(file);
   11c50:	83 ec 0c             	sub    $0xc,%esp
   11c53:	ff 75 ec             	pushl  -0x14(%ebp)
   11c56:	e8 28 55 00 00       	call   17183 <ref_inc>
   11c5b:	83 c4 10             	add    $0x10,%esp
    for(int i = 0; i < TASK_OFILE_NR; ++i)
   11c5e:	83 45 f4 01          	addl   $0x1,-0xc(%ebp)
   11c62:	83 7d f4 7f          	cmpl   $0x7f,-0xc(%ebp)
   11c66:	7e c2                	jle    11c2a <copy_open_files+0x27>
        }
    }
    mutex_unlock(&task_table_mutex);
   11c68:	83 ec 0c             	sub    $0xc,%esp
   11c6b:	68 00 f0 01 00       	push   $0x1f000
   11c70:	e8 a5 66 00 00       	call   1831a <mutex_unlock>
   11c75:	83 c4 10             	add    $0x10,%esp
}
   11c78:	90                   	nop
   11c79:	c9                   	leave  
   11c7a:	c3                   	ret    

00011c7b <sys_fork>:

int sys_fork (void) {
   11c7b:	55                   	push   %ebp
   11c7c:	89 e5                	mov    %esp,%ebp
   11c7e:	83 ec 28             	sub    $0x28,%esp
    task_t * parent_task = task_manager.curr_task;
   11c81:	a1 64 fc 05 00       	mov    0x5fc64,%eax
   11c86:	89 45 f4             	mov    %eax,-0xc(%ebp)

    // 分配任务结构
    task_t * child_task = alloc_task();
   11c89:	e8 7e 04 00 00       	call   1210c <alloc_task>
   11c8e:	89 45 f0             	mov    %eax,-0x10(%ebp)
    if (child_task == (task_t *)0) {
   11c91:	83 7d f0 00          	cmpl   $0x0,-0x10(%ebp)
   11c95:	0f 84 3b 01 00 00    	je     11dd6 <sys_fork+0x15b>
        goto fork_failed;
    }

    syscall_frame_t * frame = (syscall_frame_t *)(parent_task->tss.esp0 - sizeof(syscall_frame_t));
   11c9b:	8b 45 f4             	mov    -0xc(%ebp),%eax
   11c9e:	8b 80 60 02 00 00    	mov    0x260(%eax),%eax
   11ca4:	83 e8 58             	sub    $0x58,%eax
   11ca7:	89 45 ec             	mov    %eax,-0x14(%ebp)

    // 对子进程进行初始化，并对必要的字段进行调整
    // 其中esp要减去系统调用的总参数字节大小，因为其是通过正常的ret返回, 而没有走系统调用处理的ret(参数个数返回)
    int err = task_init(child_task,  parent_task->name, frame->eip,
                        frame->esp + sizeof(uint32_t)*SYSCALL_PARAM, 0);
   11caa:	8b 45 ec             	mov    -0x14(%ebp),%eax
   11cad:	8b 40 50             	mov    0x50(%eax),%eax
    int err = task_init(child_task,  parent_task->name, frame->eip,
   11cb0:	8d 48 14             	lea    0x14(%eax),%ecx
   11cb3:	8b 45 ec             	mov    -0x14(%ebp),%eax
   11cb6:	8b 40 34             	mov    0x34(%eax),%eax
   11cb9:	8b 55 f4             	mov    -0xc(%ebp),%edx
   11cbc:	81 c2 2c 02 00 00    	add    $0x22c,%edx
   11cc2:	83 ec 0c             	sub    $0xc,%esp
   11cc5:	6a 00                	push   $0x0
   11cc7:	51                   	push   %ecx
   11cc8:	50                   	push   %eax
   11cc9:	52                   	push   %edx
   11cca:	ff 75 f0             	pushl  -0x10(%ebp)
   11ccd:	e8 17 f8 ff ff       	call   114e9 <task_init>
   11cd2:	83 c4 20             	add    $0x20,%esp
   11cd5:	89 45 e8             	mov    %eax,-0x18(%ebp)
    if (err < 0) {
   11cd8:	83 7d e8 00          	cmpl   $0x0,-0x18(%ebp)
   11cdc:	0f 88 f7 00 00 00    	js     11dd9 <sys_fork+0x15e>
        goto fork_failed;
    }
    copy_open_files(child_task);
   11ce2:	83 ec 0c             	sub    $0xc,%esp
   11ce5:	ff 75 f0             	pushl  -0x10(%ebp)
   11ce8:	e8 16 ff ff ff       	call   11c03 <copy_open_files>
   11ced:	83 c4 10             	add    $0x10,%esp
    // 从父进程的栈中取部分状态，然后写入tss。
    // 注意检查esp, eip等是否在用户空间范围内，不然会造成page_fault
    tss_t * tss = &child_task->tss;
   11cf0:	8b 45 f0             	mov    -0x10(%ebp),%eax
   11cf3:	05 5c 02 00 00       	add    $0x25c,%eax
   11cf8:	89 45 e4             	mov    %eax,-0x1c(%ebp)
    tss->eax = 0;                       // 子进程返回0
   11cfb:	8b 45 e4             	mov    -0x1c(%ebp),%eax
   11cfe:	c7 40 28 00 00 00 00 	movl   $0x0,0x28(%eax)
    tss->ebx = frame->ebx;
   11d05:	8b 45 ec             	mov    -0x14(%ebp),%eax
   11d08:	8b 50 24             	mov    0x24(%eax),%edx
   11d0b:	8b 45 e4             	mov    -0x1c(%ebp),%eax
   11d0e:	89 50 34             	mov    %edx,0x34(%eax)
    tss->ecx = frame->ecx;
   11d11:	8b 45 ec             	mov    -0x14(%ebp),%eax
   11d14:	8b 50 2c             	mov    0x2c(%eax),%edx
   11d17:	8b 45 e4             	mov    -0x1c(%ebp),%eax
   11d1a:	89 50 2c             	mov    %edx,0x2c(%eax)
    tss->edx = frame->edx;
   11d1d:	8b 45 ec             	mov    -0x14(%ebp),%eax
   11d20:	8b 50 28             	mov    0x28(%eax),%edx
   11d23:	8b 45 e4             	mov    -0x1c(%ebp),%eax
   11d26:	89 50 30             	mov    %edx,0x30(%eax)
    tss->esi = frame->esi;
   11d29:	8b 45 ec             	mov    -0x14(%ebp),%eax
   11d2c:	8b 50 18             	mov    0x18(%eax),%edx
   11d2f:	8b 45 e4             	mov    -0x1c(%ebp),%eax
   11d32:	89 50 40             	mov    %edx,0x40(%eax)
    tss->edi = frame->edi;
   11d35:	8b 45 ec             	mov    -0x14(%ebp),%eax
   11d38:	8b 50 14             	mov    0x14(%eax),%edx
   11d3b:	8b 45 e4             	mov    -0x1c(%ebp),%eax
   11d3e:	89 50 44             	mov    %edx,0x44(%eax)
    tss->ebp = frame->ebp;
   11d41:	8b 45 ec             	mov    -0x14(%ebp),%eax
   11d44:	8b 50 1c             	mov    0x1c(%eax),%edx
   11d47:	8b 45 e4             	mov    -0x1c(%ebp),%eax
   11d4a:	89 50 3c             	mov    %edx,0x3c(%eax)

    tss->cs = frame->cs;
   11d4d:	8b 45 ec             	mov    -0x14(%ebp),%eax
   11d50:	8b 50 38             	mov    0x38(%eax),%edx
   11d53:	8b 45 e4             	mov    -0x1c(%ebp),%eax
   11d56:	89 50 4c             	mov    %edx,0x4c(%eax)
    tss->ds = frame->ds;
   11d59:	8b 45 ec             	mov    -0x14(%ebp),%eax
   11d5c:	8b 50 10             	mov    0x10(%eax),%edx
   11d5f:	8b 45 e4             	mov    -0x1c(%ebp),%eax
   11d62:	89 50 54             	mov    %edx,0x54(%eax)
    tss->es = frame->es;
   11d65:	8b 45 ec             	mov    -0x14(%ebp),%eax
   11d68:	8b 50 0c             	mov    0xc(%eax),%edx
   11d6b:	8b 45 e4             	mov    -0x1c(%ebp),%eax
   11d6e:	89 50 48             	mov    %edx,0x48(%eax)
    tss->fs = frame->fs;
   11d71:	8b 45 ec             	mov    -0x14(%ebp),%eax
   11d74:	8b 50 08             	mov    0x8(%eax),%edx
   11d77:	8b 45 e4             	mov    -0x1c(%ebp),%eax
   11d7a:	89 50 58             	mov    %edx,0x58(%eax)
    tss->gs = frame->gs;
   11d7d:	8b 45 ec             	mov    -0x14(%ebp),%eax
   11d80:	8b 50 04             	mov    0x4(%eax),%edx
   11d83:	8b 45 e4             	mov    -0x1c(%ebp),%eax
   11d86:	89 50 5c             	mov    %edx,0x5c(%eax)
    tss->eflags = frame->eflags;
   11d89:	8b 45 ec             	mov    -0x14(%ebp),%eax
   11d8c:	8b 10                	mov    (%eax),%edx
   11d8e:	8b 45 e4             	mov    -0x1c(%ebp),%eax
   11d91:	89 50 24             	mov    %edx,0x24(%eax)

    child_task->parent = parent_task;
   11d94:	8b 45 f0             	mov    -0x10(%ebp),%eax
   11d97:	8b 55 f4             	mov    -0xc(%ebp),%edx
   11d9a:	89 90 28 02 00 00    	mov    %edx,0x228(%eax)
    
    // 复制父进程的内存空间到子进程
    if ((child_task->tss.cr3 = memory_copy_uvm(parent_task->tss.cr3)) < 0) {
   11da0:	8b 45 f4             	mov    -0xc(%ebp),%eax
   11da3:	8b 80 78 02 00 00    	mov    0x278(%eax),%eax
   11da9:	83 ec 0c             	sub    $0xc,%esp
   11dac:	50                   	push   %eax
   11dad:	e8 97 ec ff ff       	call   10a49 <memory_copy_uvm>
   11db2:	83 c4 10             	add    $0x10,%esp
   11db5:	89 c2                	mov    %eax,%edx
   11db7:	8b 45 f0             	mov    -0x10(%ebp),%eax
   11dba:	89 90 78 02 00 00    	mov    %edx,0x278(%eax)
        goto fork_failed;
    }
    task_start(child_task);
   11dc0:	83 ec 0c             	sub    $0xc,%esp
   11dc3:	ff 75 f0             	pushl  -0x10(%ebp)
   11dc6:	e8 48 f8 ff ff       	call   11613 <task_start>
   11dcb:	83 c4 10             	add    $0x10,%esp
    // 创建成功，返回子进程的pid
    return child_task->pid;
   11dce:	8b 45 f0             	mov    -0x10(%ebp),%eax
   11dd1:	8b 40 04             	mov    0x4(%eax),%eax
   11dd4:	eb 2b                	jmp    11e01 <sys_fork+0x186>
        goto fork_failed;
   11dd6:	90                   	nop
   11dd7:	eb 01                	jmp    11dda <sys_fork+0x15f>
        goto fork_failed;
   11dd9:	90                   	nop
fork_failed:
    if (child_task) {
   11dda:	83 7d f0 00          	cmpl   $0x0,-0x10(%ebp)
   11dde:	74 1c                	je     11dfc <sys_fork+0x181>
        task_uninit (child_task);
   11de0:	83 ec 0c             	sub    $0xc,%esp
   11de3:	ff 75 f0             	pushl  -0x10(%ebp)
   11de6:	e8 55 f8 ff ff       	call   11640 <task_uninit>
   11deb:	83 c4 10             	add    $0x10,%esp
        free_task(child_task);
   11dee:	83 ec 0c             	sub    $0xc,%esp
   11df1:	ff 75 f0             	pushl  -0x10(%ebp)
   11df4:	e8 7f 03 00 00       	call   12178 <free_task>
   11df9:	83 c4 10             	add    $0x10,%esp
    }
    return -1;
   11dfc:	b8 ff ff ff ff       	mov    $0xffffffff,%eax
}
   11e01:	c9                   	leave  
   11e02:	c3                   	ret    

00011e03 <sys_execve>:

int sys_execve(const char*name , char* const* argv, char* const* env)
{
   11e03:	55                   	push   %ebp
   11e04:	89 e5                	mov    %esp,%ebp
   11e06:	83 ec 28             	sub    $0x28,%esp
    task_t* task = task_manager.curr_task;
   11e09:	a1 64 fc 05 00       	mov    0x5fc64,%eax
   11e0e:	89 45 f4             	mov    %eax,-0xc(%ebp)
    kernel_strncpy(task->name, get_filename(name), TASK_NAME_SIZE);
   11e11:	83 ec 0c             	sub    $0xc,%esp
   11e14:	ff 75 08             	pushl  0x8(%ebp)
   11e17:	e8 85 69 00 00       	call   187a1 <get_filename>
   11e1c:	83 c4 10             	add    $0x10,%esp
   11e1f:	89 c2                	mov    %eax,%edx
   11e21:	8b 45 f4             	mov    -0xc(%ebp),%eax
   11e24:	05 2c 02 00 00       	add    $0x22c,%eax
   11e29:	83 ec 04             	sub    $0x4,%esp
   11e2c:	6a 20                	push   $0x20
   11e2e:	52                   	push   %edx
   11e2f:	50                   	push   %eax
   11e30:	e8 f9 69 00 00       	call   1882e <kernel_strncpy>
   11e35:	83 c4 10             	add    $0x10,%esp
    uint32_t old_page_dir = task->tss.cr3;
   11e38:	8b 45 f4             	mov    -0xc(%ebp),%eax
   11e3b:	8b 80 78 02 00 00    	mov    0x278(%eax),%eax
   11e41:	89 45 f0             	mov    %eax,-0x10(%ebp)
    uint32_t new_page_dir = memory_create_uvm();
   11e44:	e8 df e9 ff ff       	call   10828 <memory_create_uvm>
   11e49:	89 45 ec             	mov    %eax,-0x14(%ebp)
    
    if(!new_page_dir)
   11e4c:	83 7d ec 00          	cmpl   $0x0,-0x14(%ebp)
   11e50:	0f 84 4d 01 00 00    	je     11fa3 <sys_execve+0x1a0>
        goto execve_failed;
    uint32_t entry = load_elf_file(task, name, new_page_dir);
   11e56:	83 ec 04             	sub    $0x4,%esp
   11e59:	ff 75 ec             	pushl  -0x14(%ebp)
   11e5c:	ff 75 08             	pushl  0x8(%ebp)
   11e5f:	ff 75 f4             	pushl  -0xc(%ebp)
   11e62:	e8 44 03 00 00       	call   121ab <load_elf_file>
   11e67:	83 c4 10             	add    $0x10,%esp
   11e6a:	89 45 e8             	mov    %eax,-0x18(%ebp)
    if(entry == 0)
   11e6d:	83 7d e8 00          	cmpl   $0x0,-0x18(%ebp)
   11e71:	0f 84 2f 01 00 00    	je     11fa6 <sys_execve+0x1a3>
        goto execve_failed;
    uint32_t stack_top = MEM_STACK_TOP - MEM_ARG_SIZE;
   11e77:	c7 45 e4 00 c0 ff df 	movl   $0xdfffc000,-0x1c(%ebp)
    int err = memory_alloc_for_page_dir(new_page_dir, MEM_STACK_TOP - MEM_STACK_SIZE, MEM_STACK_SIZE, PTE_P|PTE_U|PTE_W);
   11e7e:	6a 07                	push   $0x7
   11e80:	68 00 40 1f 00       	push   $0x1f4000
   11e85:	68 00 c0 e0 df       	push   $0xdfe0c000
   11e8a:	ff 75 ec             	pushl  -0x14(%ebp)
   11e8d:	e8 43 ea ff ff       	call   108d5 <memory_alloc_for_page_dir>
   11e92:	83 c4 10             	add    $0x10,%esp
   11e95:	89 45 e0             	mov    %eax,-0x20(%ebp)
    if(err == -1)
   11e98:	83 7d e0 ff          	cmpl   $0xffffffff,-0x20(%ebp)
   11e9c:	75 15                	jne    11eb3 <sys_execve+0xb0>
    {
        log_printf("alloc err");
   11e9e:	83 ec 0c             	sub    $0xc,%esp
   11ea1:	68 fd 93 01 00       	push   $0x193fd
   11ea6:	e8 a1 70 00 00       	call   18f4c <log_printf>
   11eab:	83 c4 10             	add    $0x10,%esp
        goto execve_failed;
   11eae:	e9 f4 00 00 00       	jmp    11fa7 <sys_execve+0x1a4>
    }
    int argc = count_string(argv);
   11eb3:	83 ec 0c             	sub    $0xc,%esp
   11eb6:	ff 75 0c             	pushl  0xc(%ebp)
   11eb9:	e8 b8 68 00 00       	call   18776 <count_string>
   11ebe:	83 c4 10             	add    $0x10,%esp
   11ec1:	89 45 dc             	mov    %eax,-0x24(%ebp)
    err = cpy_to_stack((char*)stack_top, new_page_dir, argc, argv);
   11ec4:	8b 45 e4             	mov    -0x1c(%ebp),%eax
   11ec7:	ff 75 0c             	pushl  0xc(%ebp)
   11eca:	ff 75 dc             	pushl  -0x24(%ebp)
   11ecd:	ff 75 ec             	pushl  -0x14(%ebp)
   11ed0:	50                   	push   %eax
   11ed1:	e8 06 01 00 00       	call   11fdc <cpy_to_stack>
   11ed6:	83 c4 10             	add    $0x10,%esp
   11ed9:	89 45 e0             	mov    %eax,-0x20(%ebp)
    if(err < 0)
   11edc:	83 7d e0 00          	cmpl   $0x0,-0x20(%ebp)
   11ee0:	79 15                	jns    11ef7 <sys_execve+0xf4>
    {
        log_printf("cpy args err");
   11ee2:	83 ec 0c             	sub    $0xc,%esp
   11ee5:	68 07 94 01 00       	push   $0x19407
   11eea:	e8 5d 70 00 00       	call   18f4c <log_printf>
   11eef:	83 c4 10             	add    $0x10,%esp
        goto execve_failed;
   11ef2:	e9 b0 00 00 00       	jmp    11fa7 <sys_execve+0x1a4>
    }
    syscall_frame_t* frame = (syscall_frame_t*)(task->tss.esp0 - sizeof(syscall_frame_t));
   11ef7:	8b 45 f4             	mov    -0xc(%ebp),%eax
   11efa:	8b 80 60 02 00 00    	mov    0x260(%eax),%eax
   11f00:	83 e8 58             	sub    $0x58,%eax
   11f03:	89 45 d8             	mov    %eax,-0x28(%ebp)
    frame->eip = entry;
   11f06:	8b 45 d8             	mov    -0x28(%ebp),%eax
   11f09:	8b 55 e8             	mov    -0x18(%ebp),%edx
   11f0c:	89 50 34             	mov    %edx,0x34(%eax)
    frame->eax = frame->ebx = frame->ecx = frame->edx = 0;
   11f0f:	8b 45 d8             	mov    -0x28(%ebp),%eax
   11f12:	c7 40 28 00 00 00 00 	movl   $0x0,0x28(%eax)
   11f19:	8b 45 d8             	mov    -0x28(%ebp),%eax
   11f1c:	8b 50 28             	mov    0x28(%eax),%edx
   11f1f:	8b 45 d8             	mov    -0x28(%ebp),%eax
   11f22:	89 50 2c             	mov    %edx,0x2c(%eax)
   11f25:	8b 45 d8             	mov    -0x28(%ebp),%eax
   11f28:	8b 50 2c             	mov    0x2c(%eax),%edx
   11f2b:	8b 45 d8             	mov    -0x28(%ebp),%eax
   11f2e:	89 50 24             	mov    %edx,0x24(%eax)
   11f31:	8b 45 d8             	mov    -0x28(%ebp),%eax
   11f34:	8b 50 24             	mov    0x24(%eax),%edx
   11f37:	8b 45 d8             	mov    -0x28(%ebp),%eax
   11f3a:	89 50 30             	mov    %edx,0x30(%eax)
    frame->esi = frame->edi = frame->ebp = 0;
   11f3d:	8b 45 d8             	mov    -0x28(%ebp),%eax
   11f40:	c7 40 1c 00 00 00 00 	movl   $0x0,0x1c(%eax)
   11f47:	8b 45 d8             	mov    -0x28(%ebp),%eax
   11f4a:	8b 50 1c             	mov    0x1c(%eax),%edx
   11f4d:	8b 45 d8             	mov    -0x28(%ebp),%eax
   11f50:	89 50 14             	mov    %edx,0x14(%eax)
   11f53:	8b 45 d8             	mov    -0x28(%ebp),%eax
   11f56:	8b 50 14             	mov    0x14(%eax),%edx
   11f59:	8b 45 d8             	mov    -0x28(%ebp),%eax
   11f5c:	89 50 18             	mov    %edx,0x18(%eax)
    frame->eflags = EFLAGS_DEFAULT| EFLAGS_IF;
   11f5f:	8b 45 d8             	mov    -0x28(%ebp),%eax
   11f62:	c7 00 02 02 00 00    	movl   $0x202,(%eax)
    frame->esp = stack_top - sizeof(uint32_t)*SYSCALL_PARAM;
   11f68:	8b 45 e4             	mov    -0x1c(%ebp),%eax
   11f6b:	8d 50 ec             	lea    -0x14(%eax),%edx
   11f6e:	8b 45 d8             	mov    -0x28(%ebp),%eax
   11f71:	89 50 50             	mov    %edx,0x50(%eax)
    task->tss.cr3 = new_page_dir;
   11f74:	8b 45 f4             	mov    -0xc(%ebp),%eax
   11f77:	8b 55 ec             	mov    -0x14(%ebp),%edx
   11f7a:	89 90 78 02 00 00    	mov    %edx,0x278(%eax)
    mmu_set_page_dir(new_page_dir);
   11f80:	83 ec 0c             	sub    $0xc,%esp
   11f83:	ff 75 ec             	pushl  -0x14(%ebp)
   11f86:	e8 c0 f1 ff ff       	call   1114b <mmu_set_page_dir>
   11f8b:	83 c4 10             	add    $0x10,%esp
    memory_destroy_uvm(old_page_dir);
   11f8e:	83 ec 0c             	sub    $0xc,%esp
   11f91:	ff 75 f0             	pushl  -0x10(%ebp)
   11f94:	e8 05 ec ff ff       	call   10b9e <memory_destroy_uvm>
   11f99:	83 c4 10             	add    $0x10,%esp
    return 0;
   11f9c:	b8 00 00 00 00       	mov    $0x0,%eax
   11fa1:	eb 37                	jmp    11fda <sys_execve+0x1d7>
        goto execve_failed;
   11fa3:	90                   	nop
   11fa4:	eb 01                	jmp    11fa7 <sys_execve+0x1a4>
        goto execve_failed;
   11fa6:	90                   	nop
execve_failed:
    if (new_page_dir) {
   11fa7:	83 7d ec 00          	cmpl   $0x0,-0x14(%ebp)
   11fab:	74 28                	je     11fd5 <sys_execve+0x1d2>
        task->tss.cr3 = old_page_dir;
   11fad:	8b 45 f4             	mov    -0xc(%ebp),%eax
   11fb0:	8b 55 f0             	mov    -0x10(%ebp),%edx
   11fb3:	89 90 78 02 00 00    	mov    %edx,0x278(%eax)
        mmu_set_page_dir(old_page_dir);
   11fb9:	83 ec 0c             	sub    $0xc,%esp
   11fbc:	ff 75 f0             	pushl  -0x10(%ebp)
   11fbf:	e8 87 f1 ff ff       	call   1114b <mmu_set_page_dir>
   11fc4:	83 c4 10             	add    $0x10,%esp
        memory_destroy_uvm(new_page_dir);
   11fc7:	83 ec 0c             	sub    $0xc,%esp
   11fca:	ff 75 ec             	pushl  -0x14(%ebp)
   11fcd:	e8 cc eb ff ff       	call   10b9e <memory_destroy_uvm>
   11fd2:	83 c4 10             	add    $0x10,%esp
    }
    return -1;
   11fd5:	b8 ff ff ff ff       	mov    $0xffffffff,%eax
}
   11fda:	c9                   	leave  
   11fdb:	c3                   	ret    

00011fdc <cpy_to_stack>:
int cpy_to_stack(char* to, uint32_t page_dir, int argc, char* const* argv)
{
   11fdc:	55                   	push   %ebp
   11fdd:	89 e5                	mov    %esp,%ebp
   11fdf:	83 ec 38             	sub    $0x38,%esp
    task_arg_t task_arg;
    task_arg.argc = argc;
   11fe2:	8b 45 10             	mov    0x10(%ebp),%eax
   11fe5:	89 45 d8             	mov    %eax,-0x28(%ebp)
    task_arg.argv = (char **)(to + sizeof(task_arg_t));
   11fe8:	8b 45 08             	mov    0x8(%ebp),%eax
   11feb:	83 c0 0c             	add    $0xc,%eax
   11fee:	89 45 dc             	mov    %eax,-0x24(%ebp)
    char * dest_arg = to + sizeof(task_arg_t) + sizeof(char *) * (argc + 1);
   11ff1:	8b 45 10             	mov    0x10(%ebp),%eax
   11ff4:	83 c0 04             	add    $0x4,%eax
   11ff7:	8d 14 85 00 00 00 00 	lea    0x0(,%eax,4),%edx
   11ffe:	8b 45 08             	mov    0x8(%ebp),%eax
   12001:	01 d0                	add    %edx,%eax
   12003:	89 45 f4             	mov    %eax,-0xc(%ebp)
    char ** dest_argv_tb = (char **)memory_get_paddr(page_dir, (uint32_t)(to + sizeof(task_arg_t)));
   12006:	8b 45 08             	mov    0x8(%ebp),%eax
   12009:	83 c0 0c             	add    $0xc,%eax
   1200c:	83 ec 08             	sub    $0x8,%esp
   1200f:	50                   	push   %eax
   12010:	ff 75 0c             	pushl  0xc(%ebp)
   12013:	e8 85 ec ff ff       	call   10c9d <memory_get_paddr>
   12018:	83 c4 10             	add    $0x10,%esp
   1201b:	89 45 ec             	mov    %eax,-0x14(%ebp)
    Assert(dest_argv_tb != 0);
   1201e:	83 7d ec 00          	cmpl   $0x0,-0x14(%ebp)
   12022:	75 1c                	jne    12040 <cpy_to_stack+0x64>
   12024:	68 14 94 01 00       	push   $0x19414
   12029:	68 d8 94 01 00       	push   $0x194d8
   1202e:	68 bf 01 00 00       	push   $0x1bf
   12033:	68 a8 93 01 00       	push   $0x193a8
   12038:	e8 b2 6c 00 00       	call   18cef <pannic>
   1203d:	83 c4 10             	add    $0x10,%esp
    for(int i = 0; i < argc; ++i)
   12040:	c7 45 f0 00 00 00 00 	movl   $0x0,-0x10(%ebp)
   12047:	e9 82 00 00 00       	jmp    120ce <cpy_to_stack+0xf2>
    {
        char* from = argv[i];
   1204c:	8b 45 f0             	mov    -0x10(%ebp),%eax
   1204f:	8d 14 85 00 00 00 00 	lea    0x0(,%eax,4),%edx
   12056:	8b 45 14             	mov    0x14(%ebp),%eax
   12059:	01 d0                	add    %edx,%eax
   1205b:	8b 00                	mov    (%eax),%eax
   1205d:	89 45 e8             	mov    %eax,-0x18(%ebp)
        int len = kernel_strlen(from) + 1;
   12060:	83 ec 0c             	sub    $0xc,%esp
   12063:	ff 75 e8             	pushl  -0x18(%ebp)
   12066:	e8 33 68 00 00       	call   1889e <kernel_strlen>
   1206b:	83 c4 10             	add    $0x10,%esp
   1206e:	83 c0 01             	add    $0x1,%eax
   12071:	89 45 e4             	mov    %eax,-0x1c(%ebp)
        int err = memory_copy_uvm_data((uint32_t)dest_arg, page_dir, (uint32_t)from, len);
   12074:	8b 4d e4             	mov    -0x1c(%ebp),%ecx
   12077:	8b 55 e8             	mov    -0x18(%ebp),%edx
   1207a:	8b 45 f4             	mov    -0xc(%ebp),%eax
   1207d:	51                   	push   %ecx
   1207e:	52                   	push   %edx
   1207f:	ff 75 0c             	pushl  0xc(%ebp)
   12082:	50                   	push   %eax
   12083:	e8 5b ec ff ff       	call   10ce3 <memory_copy_uvm_data>
   12088:	83 c4 10             	add    $0x10,%esp
   1208b:	89 45 e0             	mov    %eax,-0x20(%ebp)
        Assert(err >= 0);
   1208e:	83 7d e0 00          	cmpl   $0x0,-0x20(%ebp)
   12092:	79 1c                	jns    120b0 <cpy_to_stack+0xd4>
   12094:	68 26 94 01 00       	push   $0x19426
   12099:	68 d8 94 01 00       	push   $0x194d8
   1209e:	68 c5 01 00 00       	push   $0x1c5
   120a3:	68 a8 93 01 00       	push   $0x193a8
   120a8:	e8 42 6c 00 00       	call   18cef <pannic>
   120ad:	83 c4 10             	add    $0x10,%esp
        dest_argv_tb[i] = dest_arg;
   120b0:	8b 45 f0             	mov    -0x10(%ebp),%eax
   120b3:	8d 14 85 00 00 00 00 	lea    0x0(,%eax,4),%edx
   120ba:	8b 45 ec             	mov    -0x14(%ebp),%eax
   120bd:	01 c2                	add    %eax,%edx
   120bf:	8b 45 f4             	mov    -0xc(%ebp),%eax
   120c2:	89 02                	mov    %eax,(%edx)
        dest_arg += len;
   120c4:	8b 45 e4             	mov    -0x1c(%ebp),%eax
   120c7:	01 45 f4             	add    %eax,-0xc(%ebp)
    for(int i = 0; i < argc; ++i)
   120ca:	83 45 f0 01          	addl   $0x1,-0x10(%ebp)
   120ce:	8b 45 f0             	mov    -0x10(%ebp),%eax
   120d1:	3b 45 10             	cmp    0x10(%ebp),%eax
   120d4:	0f 8c 72 ff ff ff    	jl     1204c <cpy_to_stack+0x70>
    }
    if(argc)
   120da:	83 7d 10 00          	cmpl   $0x0,0x10(%ebp)
   120de:	74 15                	je     120f5 <cpy_to_stack+0x119>
        dest_argv_tb[argc] = '\0';
   120e0:	8b 45 10             	mov    0x10(%ebp),%eax
   120e3:	8d 14 85 00 00 00 00 	lea    0x0(,%eax,4),%edx
   120ea:	8b 45 ec             	mov    -0x14(%ebp),%eax
   120ed:	01 d0                	add    %edx,%eax
   120ef:	c7 00 00 00 00 00    	movl   $0x0,(%eax)
    return memory_copy_uvm_data((uint32_t)to, page_dir, (uint32_t)&task_arg, sizeof(task_arg_t));
   120f5:	8d 55 d4             	lea    -0x2c(%ebp),%edx
   120f8:	8b 45 08             	mov    0x8(%ebp),%eax
   120fb:	6a 0c                	push   $0xc
   120fd:	52                   	push   %edx
   120fe:	ff 75 0c             	pushl  0xc(%ebp)
   12101:	50                   	push   %eax
   12102:	e8 dc eb ff ff       	call   10ce3 <memory_copy_uvm_data>
   12107:	83 c4 10             	add    $0x10,%esp
}
   1210a:	c9                   	leave  
   1210b:	c3                   	ret    

0001210c <alloc_task>:
static task_t * alloc_task (void) {
   1210c:	55                   	push   %ebp
   1210d:	89 e5                	mov    %esp,%ebp
   1210f:	83 ec 18             	sub    $0x18,%esp
    task_t * task = (task_t *)0;
   12112:	c7 45 f4 00 00 00 00 	movl   $0x0,-0xc(%ebp)

    mutex_lock(&task_table_mutex);
   12119:	83 ec 0c             	sub    $0xc,%esp
   1211c:	68 00 f0 01 00       	push   $0x1f000
   12121:	e8 5e 61 00 00       	call   18284 <mutex_lock>
   12126:	83 c4 10             	add    $0x10,%esp
    for (int i = 0; i < TASK_NUM; i++) {
   12129:	c7 45 f0 00 00 00 00 	movl   $0x0,-0x10(%ebp)
   12130:	eb 2b                	jmp    1215d <alloc_task+0x51>
        task_t * curr = task_table + i;
   12132:	8b 45 f0             	mov    -0x10(%ebp),%eax
   12135:	69 c0 c8 02 00 00    	imul   $0x2c8,%eax,%eax
   1213b:	05 20 f0 01 00       	add    $0x1f020,%eax
   12140:	89 45 ec             	mov    %eax,-0x14(%ebp)
        if (curr->name[0] == 0) {
   12143:	8b 45 ec             	mov    -0x14(%ebp),%eax
   12146:	0f b6 80 2c 02 00 00 	movzbl 0x22c(%eax),%eax
   1214d:	84 c0                	test   %al,%al
   1214f:	75 08                	jne    12159 <alloc_task+0x4d>
            task = curr;
   12151:	8b 45 ec             	mov    -0x14(%ebp),%eax
   12154:	89 45 f4             	mov    %eax,-0xc(%ebp)
            break;
   12157:	eb 0a                	jmp    12163 <alloc_task+0x57>
    for (int i = 0; i < TASK_NUM; i++) {
   12159:	83 45 f0 01          	addl   $0x1,-0x10(%ebp)
   1215d:	83 7d f0 7f          	cmpl   $0x7f,-0x10(%ebp)
   12161:	7e cf                	jle    12132 <alloc_task+0x26>
        }
    }
    mutex_unlock(&task_table_mutex);
   12163:	83 ec 0c             	sub    $0xc,%esp
   12166:	68 00 f0 01 00       	push   $0x1f000
   1216b:	e8 aa 61 00 00       	call   1831a <mutex_unlock>
   12170:	83 c4 10             	add    $0x10,%esp

    return task;
   12173:	8b 45 f4             	mov    -0xc(%ebp),%eax
}
   12176:	c9                   	leave  
   12177:	c3                   	ret    

00012178 <free_task>:

static void free_task (task_t * task) {
   12178:	55                   	push   %ebp
   12179:	89 e5                	mov    %esp,%ebp
   1217b:	83 ec 08             	sub    $0x8,%esp
    mutex_lock(&task_table_mutex);
   1217e:	83 ec 0c             	sub    $0xc,%esp
   12181:	68 00 f0 01 00       	push   $0x1f000
   12186:	e8 f9 60 00 00       	call   18284 <mutex_lock>
   1218b:	83 c4 10             	add    $0x10,%esp
    task->name[0] = 0;
   1218e:	8b 45 08             	mov    0x8(%ebp),%eax
   12191:	c6 80 2c 02 00 00 00 	movb   $0x0,0x22c(%eax)
    mutex_unlock(&task_table_mutex);
   12198:	83 ec 0c             	sub    $0xc,%esp
   1219b:	68 00 f0 01 00       	push   $0x1f000
   121a0:	e8 75 61 00 00       	call   1831a <mutex_unlock>
   121a5:	83 c4 10             	add    $0x10,%esp
}
   121a8:	90                   	nop
   121a9:	c9                   	leave  
   121aa:	c3                   	ret    

000121ab <load_elf_file>:

static uint32_t load_elf_file (task_t * task, const char * name, uint32_t page_dir) {
   121ab:	55                   	push   %ebp
   121ac:	89 e5                	mov    %esp,%ebp
   121ae:	83 ec 78             	sub    $0x78,%esp
    Elf32_Ehdr elf_hdr;
    Elf32_Phdr elf_phdr;

    // 以只读方式打开
    int file = sys_open(name, 0);   // todo: flags暂时用0替代
   121b1:	83 ec 08             	sub    $0x8,%esp
   121b4:	6a 00                	push   $0x0
   121b6:	ff 75 0c             	pushl  0xc(%ebp)
   121b9:	e8 4e 53 00 00       	call   1750c <sys_open>
   121be:	83 c4 10             	add    $0x10,%esp
   121c1:	89 45 ec             	mov    %eax,-0x14(%ebp)
    if (file < 0) {
   121c4:	83 7d ec 00          	cmpl   $0x0,-0x14(%ebp)
   121c8:	79 18                	jns    121e2 <load_elf_file+0x37>
        log_printf("open file failed.%s", name);
   121ca:	83 ec 08             	sub    $0x8,%esp
   121cd:	ff 75 0c             	pushl  0xc(%ebp)
   121d0:	68 2f 94 01 00       	push   $0x1942f
   121d5:	e8 72 6d 00 00       	call   18f4c <log_printf>
   121da:	83 c4 10             	add    $0x10,%esp
        goto load_failed;
   121dd:	e9 91 01 00 00       	jmp    12373 <load_elf_file+0x1c8>
    }

    // 先读取文件头
    int cnt = sys_read(file, (char *)&elf_hdr, sizeof(Elf32_Ehdr));
   121e2:	83 ec 04             	sub    $0x4,%esp
   121e5:	6a 34                	push   $0x34
   121e7:	8d 45 b0             	lea    -0x50(%ebp),%eax
   121ea:	50                   	push   %eax
   121eb:	ff 75 ec             	pushl  -0x14(%ebp)
   121ee:	e8 d5 54 00 00       	call   176c8 <sys_read>
   121f3:	83 c4 10             	add    $0x10,%esp
   121f6:	89 45 e8             	mov    %eax,-0x18(%ebp)
    if (cnt < sizeof(Elf32_Ehdr)) {
   121f9:	8b 45 e8             	mov    -0x18(%ebp),%eax
   121fc:	83 f8 33             	cmp    $0x33,%eax
   121ff:	77 18                	ja     12219 <load_elf_file+0x6e>
        log_printf("elf hdr too small. size=%d", cnt);
   12201:	83 ec 08             	sub    $0x8,%esp
   12204:	ff 75 e8             	pushl  -0x18(%ebp)
   12207:	68 43 94 01 00       	push   $0x19443
   1220c:	e8 3b 6d 00 00       	call   18f4c <log_printf>
   12211:	83 c4 10             	add    $0x10,%esp
        goto load_failed;
   12214:	e9 5a 01 00 00       	jmp    12373 <load_elf_file+0x1c8>
    }

    // 做点必要性的检查。当然可以再做其它检查
    if ((elf_hdr.e_ident[0] != ELF_MAGIC) || (elf_hdr.e_ident[1] != 'E')
   12219:	0f b6 45 b0          	movzbl -0x50(%ebp),%eax
   1221d:	3c 7f                	cmp    $0x7f,%al
   1221f:	75 18                	jne    12239 <load_elf_file+0x8e>
   12221:	0f b6 45 b1          	movzbl -0x4f(%ebp),%eax
   12225:	3c 45                	cmp    $0x45,%al
   12227:	75 10                	jne    12239 <load_elf_file+0x8e>
        || (elf_hdr.e_ident[2] != 'L') || (elf_hdr.e_ident[3] != 'F')) {
   12229:	0f b6 45 b2          	movzbl -0x4e(%ebp),%eax
   1222d:	3c 4c                	cmp    $0x4c,%al
   1222f:	75 08                	jne    12239 <load_elf_file+0x8e>
   12231:	0f b6 45 b3          	movzbl -0x4d(%ebp),%eax
   12235:	3c 46                	cmp    $0x46,%al
   12237:	74 15                	je     1224e <load_elf_file+0xa3>
        log_printf("check elf indent failed.");
   12239:	83 ec 0c             	sub    $0xc,%esp
   1223c:	68 5e 94 01 00       	push   $0x1945e
   12241:	e8 06 6d 00 00       	call   18f4c <log_printf>
   12246:	83 c4 10             	add    $0x10,%esp
        goto load_failed;
   12249:	e9 25 01 00 00       	jmp    12373 <load_elf_file+0x1c8>
    }


    // 必须有程序头部
    if ((elf_hdr.e_phentsize == 0) || (elf_hdr.e_phoff == 0)) {
   1224e:	0f b7 45 da          	movzwl -0x26(%ebp),%eax
   12252:	66 85 c0             	test   %ax,%ax
   12255:	74 07                	je     1225e <load_elf_file+0xb3>
   12257:	8b 45 cc             	mov    -0x34(%ebp),%eax
   1225a:	85 c0                	test   %eax,%eax
   1225c:	75 15                	jne    12273 <load_elf_file+0xc8>
        log_printf("none programe header");
   1225e:	83 ec 0c             	sub    $0xc,%esp
   12261:	68 77 94 01 00       	push   $0x19477
   12266:	e8 e1 6c 00 00       	call   18f4c <log_printf>
   1226b:	83 c4 10             	add    $0x10,%esp
        goto load_failed;
   1226e:	e9 00 01 00 00       	jmp    12373 <load_elf_file+0x1c8>
    }

    // 然后从中加载程序头，将内容拷贝到相应的位置
    uint32_t e_phoff = elf_hdr.e_phoff;
   12273:	8b 45 cc             	mov    -0x34(%ebp),%eax
   12276:	89 45 f4             	mov    %eax,-0xc(%ebp)
    for (int i = 0; i < elf_hdr.e_phnum; i++, e_phoff += elf_hdr.e_phentsize) {
   12279:	c7 45 f0 00 00 00 00 	movl   $0x0,-0x10(%ebp)
   12280:	e9 cb 00 00 00       	jmp    12350 <load_elf_file+0x1a5>
        if (sys_lseek(file, e_phoff, 0) < 0) {
   12285:	8b 45 f4             	mov    -0xc(%ebp),%eax
   12288:	83 ec 04             	sub    $0x4,%esp
   1228b:	6a 00                	push   $0x0
   1228d:	50                   	push   %eax
   1228e:	ff 75 ec             	pushl  -0x14(%ebp)
   12291:	e8 16 55 00 00       	call   177ac <sys_lseek>
   12296:	83 c4 10             	add    $0x10,%esp
   12299:	85 c0                	test   %eax,%eax
   1229b:	79 15                	jns    122b2 <load_elf_file+0x107>
            log_printf("read file failed");
   1229d:	83 ec 0c             	sub    $0xc,%esp
   122a0:	68 8c 94 01 00       	push   $0x1948c
   122a5:	e8 a2 6c 00 00       	call   18f4c <log_printf>
   122aa:	83 c4 10             	add    $0x10,%esp
            goto load_failed;
   122ad:	e9 c1 00 00 00       	jmp    12373 <load_elf_file+0x1c8>
        }

        // 读取程序头后解析，这里不用读取到新进程的页表中，因为只是临时使用下
        cnt = sys_read(file, (char *)&elf_phdr, sizeof(Elf32_Phdr));
   122b2:	83 ec 04             	sub    $0x4,%esp
   122b5:	6a 20                	push   $0x20
   122b7:	8d 45 90             	lea    -0x70(%ebp),%eax
   122ba:	50                   	push   %eax
   122bb:	ff 75 ec             	pushl  -0x14(%ebp)
   122be:	e8 05 54 00 00       	call   176c8 <sys_read>
   122c3:	83 c4 10             	add    $0x10,%esp
   122c6:	89 45 e8             	mov    %eax,-0x18(%ebp)
        if (cnt < sizeof(Elf32_Phdr)) {
   122c9:	8b 45 e8             	mov    -0x18(%ebp),%eax
   122cc:	83 f8 1f             	cmp    $0x1f,%eax
   122cf:	77 15                	ja     122e6 <load_elf_file+0x13b>
            log_printf("read file failed");
   122d1:	83 ec 0c             	sub    $0xc,%esp
   122d4:	68 8c 94 01 00       	push   $0x1948c
   122d9:	e8 6e 6c 00 00       	call   18f4c <log_printf>
   122de:	83 c4 10             	add    $0x10,%esp
            goto load_failed;
   122e1:	e9 8d 00 00 00       	jmp    12373 <load_elf_file+0x1c8>
        }

        // 简单做一些检查，如有必要，可自行加更多
        // 主要判断是否是可加载的类型，并且要求加载的地址必须是用户空间
        if ((elf_phdr.p_type != PT_LOAD) || (elf_phdr.p_vaddr < MEMORY_TASK_BASE)) {
   122e6:	8b 45 90             	mov    -0x70(%ebp),%eax
   122e9:	83 f8 01             	cmp    $0x1,%eax
   122ec:	75 53                	jne    12341 <load_elf_file+0x196>
   122ee:	8b 45 98             	mov    -0x68(%ebp),%eax
   122f1:	85 c0                	test   %eax,%eax
   122f3:	79 4c                	jns    12341 <load_elf_file+0x196>
           continue;
        }

        // 加载当前程序头
        int err = load_phdr(file, &elf_phdr, page_dir);
   122f5:	83 ec 04             	sub    $0x4,%esp
   122f8:	ff 75 10             	pushl  0x10(%ebp)
   122fb:	8d 45 90             	lea    -0x70(%ebp),%eax
   122fe:	50                   	push   %eax
   122ff:	ff 75 ec             	pushl  -0x14(%ebp)
   12302:	e8 87 00 00 00       	call   1238e <load_phdr>
   12307:	83 c4 10             	add    $0x10,%esp
   1230a:	89 45 e4             	mov    %eax,-0x1c(%ebp)
        if (err < 0) {
   1230d:	83 7d e4 00          	cmpl   $0x0,-0x1c(%ebp)
   12311:	79 12                	jns    12325 <load_elf_file+0x17a>
            log_printf("load program hdr failed");
   12313:	83 ec 0c             	sub    $0xc,%esp
   12316:	68 9d 94 01 00       	push   $0x1949d
   1231b:	e8 2c 6c 00 00       	call   18f4c <log_printf>
   12320:	83 c4 10             	add    $0x10,%esp
            goto load_failed;
   12323:	eb 4e                	jmp    12373 <load_elf_file+0x1c8>
        }

        // 简单起见，不检查了，以最后的地址为bss的地址
        task->heap_start = elf_phdr.p_vaddr + elf_phdr.p_memsz;
   12325:	8b 55 98             	mov    -0x68(%ebp),%edx
   12328:	8b 45 a4             	mov    -0x5c(%ebp),%eax
   1232b:	01 c2                	add    %eax,%edx
   1232d:	8b 45 08             	mov    0x8(%ebp),%eax
   12330:	89 50 08             	mov    %edx,0x8(%eax)
        task->heap_end = task->heap_start;
   12333:	8b 45 08             	mov    0x8(%ebp),%eax
   12336:	8b 50 08             	mov    0x8(%eax),%edx
   12339:	8b 45 08             	mov    0x8(%ebp),%eax
   1233c:	89 50 0c             	mov    %edx,0xc(%eax)
   1233f:	eb 01                	jmp    12342 <load_elf_file+0x197>
           continue;
   12341:	90                   	nop
    for (int i = 0; i < elf_hdr.e_phnum; i++, e_phoff += elf_hdr.e_phentsize) {
   12342:	83 45 f0 01          	addl   $0x1,-0x10(%ebp)
   12346:	0f b7 45 da          	movzwl -0x26(%ebp),%eax
   1234a:	0f b7 c0             	movzwl %ax,%eax
   1234d:	01 45 f4             	add    %eax,-0xc(%ebp)
   12350:	0f b7 45 dc          	movzwl -0x24(%ebp),%eax
   12354:	0f b7 c0             	movzwl %ax,%eax
   12357:	39 45 f0             	cmp    %eax,-0x10(%ebp)
   1235a:	0f 8c 25 ff ff ff    	jl     12285 <load_elf_file+0xda>
   }

    sys_close(file);
   12360:	83 ec 0c             	sub    $0xc,%esp
   12363:	ff 75 ec             	pushl  -0x14(%ebp)
   12366:	e8 ca 54 00 00       	call   17835 <sys_close>
   1236b:	83 c4 10             	add    $0x10,%esp
    return elf_hdr.e_entry;
   1236e:	8b 45 c8             	mov    -0x38(%ebp),%eax
   12371:	eb 19                	jmp    1238c <load_elf_file+0x1e1>

load_failed:
    if (file >= 0) {
   12373:	83 7d ec 00          	cmpl   $0x0,-0x14(%ebp)
   12377:	78 0e                	js     12387 <load_elf_file+0x1dc>
        sys_close(file);
   12379:	83 ec 0c             	sub    $0xc,%esp
   1237c:	ff 75 ec             	pushl  -0x14(%ebp)
   1237f:	e8 b1 54 00 00       	call   17835 <sys_close>
   12384:	83 c4 10             	add    $0x10,%esp
    }

    return 0;
   12387:	b8 00 00 00 00       	mov    $0x0,%eax
}
   1238c:	c9                   	leave  
   1238d:	c3                   	ret    

0001238e <load_phdr>:

int load_phdr(int fd, Elf32_Phdr* elf_phdr, uint32_t page_dir)
{
   1238e:	55                   	push   %ebp
   1238f:	89 e5                	mov    %esp,%ebp
   12391:	83 ec 28             	sub    $0x28,%esp

    int err = memory_alloc_for_page_dir(page_dir, elf_phdr->p_vaddr, elf_phdr->p_memsz, PTE_P|PTE_U|PTE_W);
   12394:	8b 45 0c             	mov    0xc(%ebp),%eax
   12397:	8b 50 14             	mov    0x14(%eax),%edx
   1239a:	8b 45 0c             	mov    0xc(%ebp),%eax
   1239d:	8b 40 08             	mov    0x8(%eax),%eax
   123a0:	6a 07                	push   $0x7
   123a2:	52                   	push   %edx
   123a3:	50                   	push   %eax
   123a4:	ff 75 10             	pushl  0x10(%ebp)
   123a7:	e8 29 e5 ff ff       	call   108d5 <memory_alloc_for_page_dir>
   123ac:	83 c4 10             	add    $0x10,%esp
   123af:	89 45 ec             	mov    %eax,-0x14(%ebp)
    if(err == -1)
   123b2:	83 7d ec ff          	cmpl   $0xffffffff,-0x14(%ebp)
   123b6:	75 18                	jne    123d0 <load_phdr+0x42>
    {
        log_printf("memory alloc err");
   123b8:	83 ec 0c             	sub    $0xc,%esp
   123bb:	68 b5 94 01 00       	push   $0x194b5
   123c0:	e8 87 6b 00 00       	call   18f4c <log_printf>
   123c5:	83 c4 10             	add    $0x10,%esp
        goto loadphdr_fault;
   123c8:	90                   	nop
        size -= curr_size;
        vaddr += curr_size;
    }
    return 0;
loadphdr_fault:
    return -1;
   123c9:	b8 ff ff ff ff       	mov    $0xffffffff,%eax
   123ce:	eb 7e                	jmp    1244e <load_phdr+0xc0>
    sys_lseek(fd, elf_phdr->p_offset, 0);
   123d0:	8b 45 0c             	mov    0xc(%ebp),%eax
   123d3:	8b 40 04             	mov    0x4(%eax),%eax
   123d6:	83 ec 04             	sub    $0x4,%esp
   123d9:	6a 00                	push   $0x0
   123db:	50                   	push   %eax
   123dc:	ff 75 08             	pushl  0x8(%ebp)
   123df:	e8 c8 53 00 00       	call   177ac <sys_lseek>
   123e4:	83 c4 10             	add    $0x10,%esp
    uint32_t vaddr = elf_phdr->p_vaddr;
   123e7:	8b 45 0c             	mov    0xc(%ebp),%eax
   123ea:	8b 40 08             	mov    0x8(%eax),%eax
   123ed:	89 45 f4             	mov    %eax,-0xc(%ebp)
    uint32_t size = elf_phdr->p_filesz;
   123f0:	8b 45 0c             	mov    0xc(%ebp),%eax
   123f3:	8b 40 10             	mov    0x10(%eax),%eax
   123f6:	89 45 f0             	mov    %eax,-0x10(%ebp)
    while(size > 0)
   123f9:	eb 48                	jmp    12443 <load_phdr+0xb5>
        int curr_size = size > MEM_PAGE_SIZE ? MEM_PAGE_SIZE : size;
   123fb:	b8 00 10 00 00       	mov    $0x1000,%eax
   12400:	81 7d f0 00 10 00 00 	cmpl   $0x1000,-0x10(%ebp)
   12407:	0f 46 45 f0          	cmovbe -0x10(%ebp),%eax
   1240b:	89 45 e8             	mov    %eax,-0x18(%ebp)
        uint32_t paddr = memory_get_paddr(page_dir, vaddr);
   1240e:	83 ec 08             	sub    $0x8,%esp
   12411:	ff 75 f4             	pushl  -0xc(%ebp)
   12414:	ff 75 10             	pushl  0x10(%ebp)
   12417:	e8 81 e8 ff ff       	call   10c9d <memory_get_paddr>
   1241c:	83 c4 10             	add    $0x10,%esp
   1241f:	89 45 e4             	mov    %eax,-0x1c(%ebp)
        sys_read(fd, (char*)paddr, curr_size);
   12422:	8b 45 e4             	mov    -0x1c(%ebp),%eax
   12425:	83 ec 04             	sub    $0x4,%esp
   12428:	ff 75 e8             	pushl  -0x18(%ebp)
   1242b:	50                   	push   %eax
   1242c:	ff 75 08             	pushl  0x8(%ebp)
   1242f:	e8 94 52 00 00       	call   176c8 <sys_read>
   12434:	83 c4 10             	add    $0x10,%esp
        size -= curr_size;
   12437:	8b 45 e8             	mov    -0x18(%ebp),%eax
   1243a:	29 45 f0             	sub    %eax,-0x10(%ebp)
        vaddr += curr_size;
   1243d:	8b 45 e8             	mov    -0x18(%ebp),%eax
   12440:	01 45 f4             	add    %eax,-0xc(%ebp)
    while(size > 0)
   12443:	83 7d f0 00          	cmpl   $0x0,-0x10(%ebp)
   12447:	75 b2                	jne    123fb <load_phdr+0x6d>
    return 0;
   12449:	b8 00 00 00 00       	mov    $0x0,%eax
}
   1244e:	c9                   	leave  
   1244f:	c3                   	ret    

00012450 <sys_wait>:

int sys_wait(int* status) {
   12450:	55                   	push   %ebp
   12451:	89 e5                	mov    %esp,%ebp
   12453:	83 ec 18             	sub    $0x18,%esp
    task_t* task = task_manager.curr_task;
   12456:	a1 64 fc 05 00       	mov    0x5fc64,%eax
   1245b:	89 45 f0             	mov    %eax,-0x10(%ebp)
    for(;;)
    {
        mutex_lock(&task_table_mutex);
   1245e:	83 ec 0c             	sub    $0xc,%esp
   12461:	68 00 f0 01 00       	push   $0x1f000
   12466:	e8 19 5e 00 00       	call   18284 <mutex_lock>
   1246b:	83 c4 10             	add    $0x10,%esp
        for(int i = 0; i < TASK_NUM; ++i)
   1246e:	c7 45 f4 00 00 00 00 	movl   $0x0,-0xc(%ebp)
   12475:	e9 d1 00 00 00       	jmp    1254b <sys_wait+0xfb>
        {
            if(task_table[i].parent == task)
   1247a:	8b 45 f4             	mov    -0xc(%ebp),%eax
   1247d:	69 c0 c8 02 00 00    	imul   $0x2c8,%eax,%eax
   12483:	05 48 f2 01 00       	add    $0x1f248,%eax
   12488:	8b 00                	mov    (%eax),%eax
   1248a:	39 45 f0             	cmp    %eax,-0x10(%ebp)
   1248d:	0f 85 b4 00 00 00    	jne    12547 <sys_wait+0xf7>
            {
                if(task_table[i].state == ZOMBIE)
   12493:	8b 45 f4             	mov    -0xc(%ebp),%eax
   12496:	69 c0 c8 02 00 00    	imul   $0x2c8,%eax,%eax
   1249c:	05 20 f0 01 00       	add    $0x1f020,%eax
   124a1:	8b 00                	mov    (%eax),%eax
   124a3:	83 f8 05             	cmp    $0x5,%eax
   124a6:	0f 85 9b 00 00 00    	jne    12547 <sys_wait+0xf7>
                {
                    int pid = task_table[i].pid;
   124ac:	8b 45 f4             	mov    -0xc(%ebp),%eax
   124af:	69 c0 c8 02 00 00    	imul   $0x2c8,%eax,%eax
   124b5:	05 24 f0 01 00       	add    $0x1f024,%eax
   124ba:	8b 00                	mov    (%eax),%eax
   124bc:	89 45 ec             	mov    %eax,-0x14(%ebp)
                    *status = task_table[i].status;
   124bf:	8b 45 f4             	mov    -0xc(%ebp),%eax
   124c2:	69 c0 c8 02 00 00    	imul   $0x2c8,%eax,%eax
   124c8:	05 78 f2 01 00       	add    $0x1f278,%eax
   124cd:	8b 10                	mov    (%eax),%edx
   124cf:	8b 45 08             	mov    0x8(%ebp),%eax
   124d2:	89 10                	mov    %edx,(%eax)
                    memory_destroy_uvm(task_table[i].tss.cr3);
   124d4:	8b 45 f4             	mov    -0xc(%ebp),%eax
   124d7:	69 c0 c8 02 00 00    	imul   $0x2c8,%eax,%eax
   124dd:	05 98 f2 01 00       	add    $0x1f298,%eax
   124e2:	8b 00                	mov    (%eax),%eax
   124e4:	83 ec 0c             	sub    $0xc,%esp
   124e7:	50                   	push   %eax
   124e8:	e8 b1 e6 ff ff       	call   10b9e <memory_destroy_uvm>
   124ed:	83 c4 10             	add    $0x10,%esp
                    memory_free_page(task_table[i].tss.esp0 - MEM_PAGE_SIZE);
   124f0:	8b 45 f4             	mov    -0xc(%ebp),%eax
   124f3:	69 c0 c8 02 00 00    	imul   $0x2c8,%eax,%eax
   124f9:	05 80 f2 01 00       	add    $0x1f280,%eax
   124fe:	8b 00                	mov    (%eax),%eax
   12500:	2d 00 10 00 00       	sub    $0x1000,%eax
   12505:	83 ec 0c             	sub    $0xc,%esp
   12508:	50                   	push   %eax
   12509:	e8 92 e4 ff ff       	call   109a0 <memory_free_page>
   1250e:	83 c4 10             	add    $0x10,%esp
                    kernel_memset((void*)&task_table[i], 0, sizeof(task_t));
   12511:	8b 45 f4             	mov    -0xc(%ebp),%eax
   12514:	69 c0 c8 02 00 00    	imul   $0x2c8,%eax,%eax
   1251a:	05 20 f0 01 00       	add    $0x1f020,%eax
   1251f:	83 ec 04             	sub    $0x4,%esp
   12522:	68 c8 02 00 00       	push   $0x2c8
   12527:	6a 00                	push   $0x0
   12529:	50                   	push   %eax
   1252a:	e8 73 64 00 00       	call   189a2 <kernel_memset>
   1252f:	83 c4 10             	add    $0x10,%esp
                    mutex_unlock(&task_table_mutex);
   12532:	83 ec 0c             	sub    $0xc,%esp
   12535:	68 00 f0 01 00       	push   $0x1f000
   1253a:	e8 db 5d 00 00       	call   1831a <mutex_unlock>
   1253f:	83 c4 10             	add    $0x10,%esp
                    return pid;
   12542:	8b 45 ec             	mov    -0x14(%ebp),%eax
   12545:	eb 3f                	jmp    12586 <sys_wait+0x136>
        for(int i = 0; i < TASK_NUM; ++i)
   12547:	83 45 f4 01          	addl   $0x1,-0xc(%ebp)
   1254b:	83 7d f4 7f          	cmpl   $0x7f,-0xc(%ebp)
   1254f:	0f 8e 25 ff ff ff    	jle    1247a <sys_wait+0x2a>
                }
            }
        }
        mutex_unlock(&task_table_mutex);
   12555:	83 ec 0c             	sub    $0xc,%esp
   12558:	68 00 f0 01 00       	push   $0x1f000
   1255d:	e8 b8 5d 00 00       	call   1831a <mutex_unlock>
   12562:	83 c4 10             	add    $0x10,%esp
        // irq_state_t state = enter_protection();
        task->state = WAITING;
   12565:	8b 45 f0             	mov    -0x10(%ebp),%eax
   12568:	c7 00 04 00 00 00    	movl   $0x4,(%eax)
        set_block(task);
   1256e:	83 ec 0c             	sub    $0xc,%esp
   12571:	ff 75 f0             	pushl  -0x10(%ebp)
   12574:	e8 98 f3 ff ff       	call   11911 <set_block>
   12579:	83 c4 10             	add    $0x10,%esp
        task_dispatch();
   1257c:	e8 5d f4 ff ff       	call   119de <task_dispatch>
        mutex_lock(&task_table_mutex);
   12581:	e9 d8 fe ff ff       	jmp    1245e <sys_wait+0xe>
        // leave_protection(state);
        
    }
	return 0;
}
   12586:	c9                   	leave  
   12587:	c3                   	ret    

00012588 <sys_exit>:
void sys_exit(int status) {
   12588:	55                   	push   %ebp
   12589:	89 e5                	mov    %esp,%ebp
   1258b:	83 ec 28             	sub    $0x28,%esp
	task_t* task = task_manager.curr_task;
   1258e:	a1 64 fc 05 00       	mov    0x5fc64,%eax
   12593:	89 45 e8             	mov    %eax,-0x18(%ebp)
    for(int i = 0; i < TASK_OFILE_NR; ++i)
   12596:	c7 45 f4 00 00 00 00 	movl   $0x0,-0xc(%ebp)
   1259d:	eb 37                	jmp    125d6 <sys_exit+0x4e>
    {
        file_t* file = task_file(i);
   1259f:	ff 75 f4             	pushl  -0xc(%ebp)
   125a2:	e8 e4 ec ff ff       	call   1128b <task_file>
   125a7:	83 c4 04             	add    $0x4,%esp
   125aa:	89 45 dc             	mov    %eax,-0x24(%ebp)
        if(file)
   125ad:	83 7d dc 00          	cmpl   $0x0,-0x24(%ebp)
   125b1:	74 1f                	je     125d2 <sys_exit+0x4a>
        {
            sys_close(i);
   125b3:	83 ec 0c             	sub    $0xc,%esp
   125b6:	ff 75 f4             	pushl  -0xc(%ebp)
   125b9:	e8 77 52 00 00       	call   17835 <sys_close>
   125be:	83 c4 10             	add    $0x10,%esp
            task->file_table[i] = (file_t*)0;
   125c1:	8b 45 e8             	mov    -0x18(%ebp),%eax
   125c4:	8b 55 f4             	mov    -0xc(%ebp),%edx
   125c7:	83 c2 08             	add    $0x8,%edx
   125ca:	c7 44 90 08 00 00 00 	movl   $0x0,0x8(%eax,%edx,4)
   125d1:	00 
    for(int i = 0; i < TASK_OFILE_NR; ++i)
   125d2:	83 45 f4 01          	addl   $0x1,-0xc(%ebp)
   125d6:	83 7d f4 7f          	cmpl   $0x7f,-0xc(%ebp)
   125da:	7e c3                	jle    1259f <sys_exit+0x17>
        }
    }

    mutex_lock(&task_table_mutex);
   125dc:	83 ec 0c             	sub    $0xc,%esp
   125df:	68 00 f0 01 00       	push   $0x1f000
   125e4:	e8 9b 5c 00 00       	call   18284 <mutex_lock>
   125e9:	83 c4 10             	add    $0x10,%esp
    int move_child = 0;
   125ec:	c7 45 f0 00 00 00 00 	movl   $0x0,-0x10(%ebp)
    for(int i = 0; i < TASK_NUM;++i)
   125f3:	c7 45 ec 00 00 00 00 	movl   $0x0,-0x14(%ebp)
   125fa:	eb 49                	jmp    12645 <sys_exit+0xbd>
    {
        if(task_table[i].parent == task)
   125fc:	8b 45 ec             	mov    -0x14(%ebp),%eax
   125ff:	69 c0 c8 02 00 00    	imul   $0x2c8,%eax,%eax
   12605:	05 48 f2 01 00       	add    $0x1f248,%eax
   1260a:	8b 00                	mov    (%eax),%eax
   1260c:	39 45 e8             	cmp    %eax,-0x18(%ebp)
   1260f:	75 30                	jne    12641 <sys_exit+0xb9>
        {
            task_table[i].parent = &task_manager.first_task;
   12611:	8b 45 ec             	mov    -0x14(%ebp),%eax
   12614:	69 c0 c8 02 00 00    	imul   $0x2c8,%eax,%eax
   1261a:	05 48 f2 01 00       	add    $0x1f248,%eax
   1261f:	c7 00 68 fc 05 00    	movl   $0x5fc68,(%eax)
            if(task_table[i].state == ZOMBIE)
   12625:	8b 45 ec             	mov    -0x14(%ebp),%eax
   12628:	69 c0 c8 02 00 00    	imul   $0x2c8,%eax,%eax
   1262e:	05 20 f0 01 00       	add    $0x1f020,%eax
   12633:	8b 00                	mov    (%eax),%eax
   12635:	83 f8 05             	cmp    $0x5,%eax
   12638:	75 07                	jne    12641 <sys_exit+0xb9>
            {
                move_child = 1;
   1263a:	c7 45 f0 01 00 00 00 	movl   $0x1,-0x10(%ebp)
    for(int i = 0; i < TASK_NUM;++i)
   12641:	83 45 ec 01          	addl   $0x1,-0x14(%ebp)
   12645:	83 7d ec 7f          	cmpl   $0x7f,-0x14(%ebp)
   12649:	7e b1                	jle    125fc <sys_exit+0x74>
            }
        }
    }
    mutex_unlock(&task_table_mutex);
   1264b:	83 ec 0c             	sub    $0xc,%esp
   1264e:	68 00 f0 01 00       	push   $0x1f000
   12653:	e8 c2 5c 00 00       	call   1831a <mutex_unlock>
   12658:	83 c4 10             	add    $0x10,%esp
    irq_state_t state = enter_protection();
   1265b:	e8 c6 0d 00 00       	call   13426 <enter_protection>
   12660:	89 45 e4             	mov    %eax,-0x1c(%ebp)
    task_t* parent = task->parent;
   12663:	8b 45 e8             	mov    -0x18(%ebp),%eax
   12666:	8b 80 28 02 00 00    	mov    0x228(%eax),%eax
   1266c:	89 45 e0             	mov    %eax,-0x20(%ebp)
    if(move_child && (parent != &task_manager.first_task))
   1266f:	83 7d f0 00          	cmpl   $0x0,-0x10(%ebp)
   12673:	74 23                	je     12698 <sys_exit+0x110>
   12675:	81 7d e0 68 fc 05 00 	cmpl   $0x5fc68,-0x20(%ebp)
   1267c:	74 1a                	je     12698 <sys_exit+0x110>
    {
        if(task_manager.first_task.state == WAITING)
   1267e:	a1 68 fc 05 00       	mov    0x5fc68,%eax
   12683:	83 f8 04             	cmp    $0x4,%eax
   12686:	75 10                	jne    12698 <sys_exit+0x110>
            set_ready(&task_manager.first_task);
   12688:	83 ec 0c             	sub    $0xc,%esp
   1268b:	68 68 fc 05 00       	push   $0x5fc68
   12690:	e8 48 f2 ff ff       	call   118dd <set_ready>
   12695:	83 c4 10             	add    $0x10,%esp
    }
    if(parent->state == WAITING)
   12698:	8b 45 e0             	mov    -0x20(%ebp),%eax
   1269b:	8b 00                	mov    (%eax),%eax
   1269d:	83 f8 04             	cmp    $0x4,%eax
   126a0:	75 0e                	jne    126b0 <sys_exit+0x128>
        set_ready(parent);
   126a2:	83 ec 0c             	sub    $0xc,%esp
   126a5:	ff 75 e0             	pushl  -0x20(%ebp)
   126a8:	e8 30 f2 ff ff       	call   118dd <set_ready>
   126ad:	83 c4 10             	add    $0x10,%esp
    task->status = status;
   126b0:	8b 45 e8             	mov    -0x18(%ebp),%eax
   126b3:	8b 55 08             	mov    0x8(%ebp),%edx
   126b6:	89 90 58 02 00 00    	mov    %edx,0x258(%eax)
    task->state = ZOMBIE;
   126bc:	8b 45 e8             	mov    -0x18(%ebp),%eax
   126bf:	c7 00 05 00 00 00    	movl   $0x5,(%eax)
    set_block(task);
   126c5:	83 ec 0c             	sub    $0xc,%esp
   126c8:	ff 75 e8             	pushl  -0x18(%ebp)
   126cb:	e8 41 f2 ff ff       	call   11911 <set_block>
   126d0:	83 c4 10             	add    $0x10,%esp
    task_dispatch();
   126d3:	e8 06 f3 ff ff       	call   119de <task_dispatch>
    leave_protection(state);
   126d8:	83 ec 0c             	sub    $0xc,%esp
   126db:	ff 75 e4             	pushl  -0x1c(%ebp)
   126de:	e8 5b 0d 00 00       	call   1343e <leave_protection>
   126e3:	83 c4 10             	add    $0x10,%esp
    
    return;
   126e6:	90                   	nop

   126e7:	c9                   	leave  
   126e8:	c3                   	ret    

000126e9 <lgdt>:
static inline void lgdt(uint32_t start, uint32_t size) {
   126e9:	55                   	push   %ebp
   126ea:	89 e5                	mov    %esp,%ebp
   126ec:	83 ec 10             	sub    $0x10,%esp
	gdt.start31_16 = start >> 16;
   126ef:	8b 45 08             	mov    0x8(%ebp),%eax
   126f2:	c1 e8 10             	shr    $0x10,%eax
   126f5:	66 89 45 fe          	mov    %ax,-0x2(%ebp)
	gdt.start15_0 = start & 0xFFFF;
   126f9:	8b 45 08             	mov    0x8(%ebp),%eax
   126fc:	66 89 45 fc          	mov    %ax,-0x4(%ebp)
	gdt.limit = size - 1;
   12700:	8b 45 0c             	mov    0xc(%ebp),%eax
   12703:	83 e8 01             	sub    $0x1,%eax
   12706:	66 89 45 fa          	mov    %ax,-0x6(%ebp)
	__asm__ __volatile__("lgdt %[g]"::[g]"m"(gdt));
   1270a:	0f 01 55 fa          	lgdtl  -0x6(%ebp)
}
   1270e:	90                   	nop
   1270f:	c9                   	leave  
   12710:	c3                   	ret    

00012711 <segment_desc_set>:
#include "cpu/irq.h"
#include "ipc/mutex.h"
#include "core/syscall.h"
static segment_desc_t gdt_table[GDT_TABLE_SIZE];
static mutex_t mutex;
void segment_desc_set(int selector, uint32_t base, uint32_t limit, uint16_t attr){
   12711:	55                   	push   %ebp
   12712:	89 e5                	mov    %esp,%ebp
   12714:	83 ec 14             	sub    $0x14,%esp
   12717:	8b 45 14             	mov    0x14(%ebp),%eax
   1271a:	66 89 45 ec          	mov    %ax,-0x14(%ebp)
    segment_desc_t* desc = gdt_table + (selector >> 3); //segment_desc_t是8个字节
   1271e:	8b 45 08             	mov    0x8(%ebp),%eax
   12721:	c1 f8 03             	sar    $0x3,%eax
   12724:	c1 e0 03             	shl    $0x3,%eax
   12727:	05 20 54 03 00       	add    $0x35420,%eax
   1272c:	89 45 fc             	mov    %eax,-0x4(%ebp)
    if(limit > 0xfffff){
   1272f:	81 7d 10 ff ff 0f 00 	cmpl   $0xfffff,0x10(%ebp)
   12736:	76 0f                	jbe    12747 <segment_desc_set+0x36>
        attr |= 0x8000;
   12738:	66 81 4d ec 00 80    	orw    $0x8000,-0x14(%ebp)
        limit /= 0x1000;
   1273e:	8b 45 10             	mov    0x10(%ebp),%eax
   12741:	c1 e8 0c             	shr    $0xc,%eax
   12744:	89 45 10             	mov    %eax,0x10(%ebp)
    }
    desc -> limit15_0 = limit & 0xFFFF;
   12747:	8b 45 10             	mov    0x10(%ebp),%eax
   1274a:	89 c2                	mov    %eax,%edx
   1274c:	8b 45 fc             	mov    -0x4(%ebp),%eax
   1274f:	66 89 10             	mov    %dx,(%eax)
    desc -> base15_0 = base & 0xFFFF;
   12752:	8b 45 0c             	mov    0xc(%ebp),%eax
   12755:	89 c2                	mov    %eax,%edx
   12757:	8b 45 fc             	mov    -0x4(%ebp),%eax
   1275a:	66 89 50 02          	mov    %dx,0x2(%eax)
    desc -> base23_16 = (base >> 16) & 0xFF;
   1275e:	8b 45 0c             	mov    0xc(%ebp),%eax
   12761:	c1 e8 10             	shr    $0x10,%eax
   12764:	89 c2                	mov    %eax,%edx
   12766:	8b 45 fc             	mov    -0x4(%ebp),%eax
   12769:	88 50 04             	mov    %dl,0x4(%eax)
    desc -> attr = attr |(((limit >> 16) &0xF) << 8);
   1276c:	8b 45 10             	mov    0x10(%ebp),%eax
   1276f:	c1 e8 10             	shr    $0x10,%eax
   12772:	c1 e0 08             	shl    $0x8,%eax
   12775:	66 25 00 0f          	and    $0xf00,%ax
   12779:	66 0b 45 ec          	or     -0x14(%ebp),%ax
   1277d:	89 c2                	mov    %eax,%edx
   1277f:	8b 45 fc             	mov    -0x4(%ebp),%eax
   12782:	66 89 50 05          	mov    %dx,0x5(%eax)
    desc -> base31_24 = (base >> 24) & 0xFF;
   12786:	8b 45 0c             	mov    0xc(%ebp),%eax
   12789:	c1 e8 18             	shr    $0x18,%eax
   1278c:	89 c2                	mov    %eax,%edx
   1278e:	8b 45 fc             	mov    -0x4(%ebp),%eax
   12791:	88 50 07             	mov    %dl,0x7(%eax)
}
   12794:	90                   	nop
   12795:	c9                   	leave  
   12796:	c3                   	ret    

00012797 <gate_desc_set>:
void gate_desc_set(gate_desc_t* desc, uint16_t selector, uint32_t offset, uint16_t attr)
{
   12797:	55                   	push   %ebp
   12798:	89 e5                	mov    %esp,%ebp
   1279a:	83 ec 08             	sub    $0x8,%esp
   1279d:	8b 55 0c             	mov    0xc(%ebp),%edx
   127a0:	8b 45 14             	mov    0x14(%ebp),%eax
   127a3:	66 89 55 fc          	mov    %dx,-0x4(%ebp)
   127a7:	66 89 45 f8          	mov    %ax,-0x8(%ebp)
    desc -> selector = selector;
   127ab:	8b 45 08             	mov    0x8(%ebp),%eax
   127ae:	0f b7 55 fc          	movzwl -0x4(%ebp),%edx
   127b2:	66 89 50 02          	mov    %dx,0x2(%eax)
    desc -> offset15_0 = offset & 0xffff;
   127b6:	8b 45 10             	mov    0x10(%ebp),%eax
   127b9:	89 c2                	mov    %eax,%edx
   127bb:	8b 45 08             	mov    0x8(%ebp),%eax
   127be:	66 89 10             	mov    %dx,(%eax)
    desc -> attr = attr;
   127c1:	8b 45 08             	mov    0x8(%ebp),%eax
   127c4:	0f b7 55 f8          	movzwl -0x8(%ebp),%edx
   127c8:	66 89 50 04          	mov    %dx,0x4(%eax)
    desc -> offset31_16 = (offset >> 16) &0xFFFF;
   127cc:	8b 45 10             	mov    0x10(%ebp),%eax
   127cf:	c1 e8 10             	shr    $0x10,%eax
   127d2:	89 c2                	mov    %eax,%edx
   127d4:	8b 45 08             	mov    0x8(%ebp),%eax
   127d7:	66 89 50 06          	mov    %dx,0x6(%eax)
}
   127db:	90                   	nop
   127dc:	c9                   	leave  
   127dd:	c3                   	ret    

000127de <init_gdt>:
void init_gdt(void){
   127de:	55                   	push   %ebp
   127df:	89 e5                	mov    %esp,%ebp
   127e1:	83 ec 10             	sub    $0x10,%esp
    for(int i = 0; i < GDT_TABLE_SIZE; ++i)
   127e4:	c7 45 fc 00 00 00 00 	movl   $0x0,-0x4(%ebp)
   127eb:	eb 15                	jmp    12802 <init_gdt+0x24>
        segment_desc_set(i * sizeof(segment_desc_set), 0, 0, 0);
   127ed:	6a 00                	push   $0x0
   127ef:	6a 00                	push   $0x0
   127f1:	6a 00                	push   $0x0
   127f3:	ff 75 fc             	pushl  -0x4(%ebp)
   127f6:	e8 16 ff ff ff       	call   12711 <segment_desc_set>
   127fb:	83 c4 10             	add    $0x10,%esp
    for(int i = 0; i < GDT_TABLE_SIZE; ++i)
   127fe:	83 45 fc 01          	addl   $0x1,-0x4(%ebp)
   12802:	81 7d fc ff 00 00 00 	cmpl   $0xff,-0x4(%ebp)
   12809:	7e e2                	jle    127ed <init_gdt+0xf>

    segment_desc_set(KERNEL_SELECTOR_CS, 0x00000000, 0xFFFFFFFF, 
   1280b:	68 9a c0 00 00       	push   $0xc09a
   12810:	6a ff                	push   $0xffffffff
   12812:	6a 00                	push   $0x0
   12814:	6a 08                	push   $0x8
   12816:	e8 f6 fe ff ff       	call   12711 <segment_desc_set>
   1281b:	83 c4 10             	add    $0x10,%esp
    (SEG_P_PRESENT | SEG_DPL0 | SEG_S_NORMAL | SEG_TYPE_CODE
                     | SEG_TYPE_RW | SEG_D | SEG_G)
    );
    segment_desc_set(KERNEL_SELECTOR_DS, 0x00000000, 0xffffffff, 
   1281e:	68 92 c0 00 00       	push   $0xc092
   12823:	6a ff                	push   $0xffffffff
   12825:	6a 00                	push   $0x0
   12827:	6a 10                	push   $0x10
   12829:	e8 e3 fe ff ff       	call   12711 <segment_desc_set>
   1282e:	83 c4 10             	add    $0x10,%esp
    (SEG_P_PRESENT | SEG_DPL0 | SEG_S_NORMAL | SEG_TYPE_DATA
                     | SEG_TYPE_RW | SEG_D | SEG_G)
    );
    gate_desc_set((gate_desc_t*)(gdt_table + (SYSTEM_SELECTOR >> 3)), KERNEL_SELECTOR_CS,
   12831:	ba c9 02 01 00       	mov    $0x102c9,%edx
   12836:	b8 38 54 03 00       	mov    $0x35438,%eax
   1283b:	68 05 ec 00 00       	push   $0xec05
   12840:	52                   	push   %edx
   12841:	6a 08                	push   $0x8
   12843:	50                   	push   %eax
   12844:	e8 4e ff ff ff       	call   12797 <gate_desc_set>
   12849:	83 c4 10             	add    $0x10,%esp
    (uint32_t)exception_handler_syscall,
    GATE_P_PRESENT | GATE_DPL3 |  GATE_TYPE_SYSCALL | SYSCALL_PARAM
    );

    
    lgdt((uint32_t)gdt_table, sizeof(gdt_table));
   1284c:	b8 20 54 03 00       	mov    $0x35420,%eax
   12851:	68 00 08 00 00       	push   $0x800
   12856:	50                   	push   %eax
   12857:	e8 8d fe ff ff       	call   126e9 <lgdt>
   1285c:	83 c4 08             	add    $0x8,%esp
}
   1285f:	90                   	nop
   12860:	c9                   	leave  
   12861:	c3                   	ret    

00012862 <cpu_init>:

void cpu_init(void){
   12862:	55                   	push   %ebp
   12863:	89 e5                	mov    %esp,%ebp
   12865:	83 ec 08             	sub    $0x8,%esp
    mutex_init(&mutex);
   12868:	83 ec 0c             	sub    $0xc,%esp
   1286b:	68 20 5c 03 00       	push   $0x35c20
   12870:	e8 e1 59 00 00       	call   18256 <mutex_init>
   12875:	83 c4 10             	add    $0x10,%esp
    init_gdt();
   12878:	e8 61 ff ff ff       	call   127de <init_gdt>
}
   1287d:	90                   	nop
   1287e:	c9                   	leave  
   1287f:	c3                   	ret    

00012880 <gdt_alloc_desc>:

int gdt_alloc_desc(void){
   12880:	55                   	push   %ebp
   12881:	89 e5                	mov    %esp,%ebp
   12883:	83 ec 18             	sub    $0x18,%esp
    mutex_lock(&mutex);
   12886:	83 ec 0c             	sub    $0xc,%esp
   12889:	68 20 5c 03 00       	push   $0x35c20
   1288e:	e8 f1 59 00 00       	call   18284 <mutex_lock>
   12893:	83 c4 10             	add    $0x10,%esp
    for(int i = 1; i < GDT_TABLE_SIZE; ++i){
   12896:	c7 45 f4 01 00 00 00 	movl   $0x1,-0xc(%ebp)
   1289d:	eb 3b                	jmp    128da <gdt_alloc_desc+0x5a>
        segment_desc_t * desc = gdt_table;
   1289f:	c7 45 f0 20 54 03 00 	movl   $0x35420,-0x10(%ebp)
        if((desc + i) -> attr == 0)
   128a6:	8b 45 f4             	mov    -0xc(%ebp),%eax
   128a9:	8d 14 c5 00 00 00 00 	lea    0x0(,%eax,8),%edx
   128b0:	8b 45 f0             	mov    -0x10(%ebp),%eax
   128b3:	01 d0                	add    %edx,%eax
   128b5:	0f b7 40 05          	movzwl 0x5(%eax),%eax
   128b9:	66 85 c0             	test   %ax,%ax
   128bc:	75 18                	jne    128d6 <gdt_alloc_desc+0x56>
        {
            mutex_unlock(&mutex);
   128be:	83 ec 0c             	sub    $0xc,%esp
   128c1:	68 20 5c 03 00       	push   $0x35c20
   128c6:	e8 4f 5a 00 00       	call   1831a <mutex_unlock>
   128cb:	83 c4 10             	add    $0x10,%esp
            return i * sizeof(segment_desc_t);
   128ce:	8b 45 f4             	mov    -0xc(%ebp),%eax
   128d1:	c1 e0 03             	shl    $0x3,%eax
   128d4:	eb 1d                	jmp    128f3 <gdt_alloc_desc+0x73>
    for(int i = 1; i < GDT_TABLE_SIZE; ++i){
   128d6:	83 45 f4 01          	addl   $0x1,-0xc(%ebp)
   128da:	81 7d f4 ff 00 00 00 	cmpl   $0xff,-0xc(%ebp)
   128e1:	7e bc                	jle    1289f <gdt_alloc_desc+0x1f>
        }
            
    }
    mutex_unlock(&mutex);
   128e3:	83 ec 0c             	sub    $0xc,%esp
   128e6:	68 20 5c 03 00       	push   $0x35c20
   128eb:	e8 2a 5a 00 00       	call   1831a <mutex_unlock>
   128f0:	83 c4 10             	add    $0x10,%esp
}
   128f3:	c9                   	leave  
   128f4:	c3                   	ret    

000128f5 <gdt_free_tss>:

void gdt_free_tss(int selector)
{
   128f5:	55                   	push   %ebp
   128f6:	89 e5                	mov    %esp,%ebp
   128f8:	83 ec 08             	sub    $0x8,%esp
    mutex_lock(&mutex);
   128fb:	83 ec 0c             	sub    $0xc,%esp
   128fe:	68 20 5c 03 00       	push   $0x35c20
   12903:	e8 7c 59 00 00       	call   18284 <mutex_lock>
   12908:	83 c4 10             	add    $0x10,%esp
    gdt_table[selector / sizeof(segment_desc_t)].attr = 0;
   1290b:	8b 45 08             	mov    0x8(%ebp),%eax
   1290e:	c1 e8 03             	shr    $0x3,%eax
   12911:	66 c7 04 c5 25 54 03 	movw   $0x0,0x35425(,%eax,8)
   12918:	00 00 00 
    mutex_unlock(&mutex);
   1291b:	83 ec 0c             	sub    $0xc,%esp
   1291e:	68 20 5c 03 00       	push   $0x35c20
   12923:	e8 f2 59 00 00       	call   1831a <mutex_unlock>
   12928:	83 c4 10             	add    $0x10,%esp
   1292b:	90                   	nop
   1292c:	c9                   	leave  
   1292d:	c3                   	ret    

0001292e <inb>:
static inline uint8_t inb(uint16_t  port) {
   1292e:	55                   	push   %ebp
   1292f:	89 e5                	mov    %esp,%ebp
   12931:	83 ec 14             	sub    $0x14,%esp
   12934:	8b 45 08             	mov    0x8(%ebp),%eax
   12937:	66 89 45 ec          	mov    %ax,-0x14(%ebp)
	__asm__ __volatile__("inb %[p], %[v]" : [v]"=a" (rv) : [p]"d"(port));
   1293b:	0f b7 45 ec          	movzwl -0x14(%ebp),%eax
   1293f:	89 c2                	mov    %eax,%edx
   12941:	ec                   	in     (%dx),%al
   12942:	88 45 ff             	mov    %al,-0x1(%ebp)
	return rv;
   12945:	0f b6 45 ff          	movzbl -0x1(%ebp),%eax
}
   12949:	c9                   	leave  
   1294a:	c3                   	ret    

0001294b <inw>:
static inline uint16_t inw(uint16_t  port) {
   1294b:	55                   	push   %ebp
   1294c:	89 e5                	mov    %esp,%ebp
   1294e:	83 ec 14             	sub    $0x14,%esp
   12951:	8b 45 08             	mov    0x8(%ebp),%eax
   12954:	66 89 45 ec          	mov    %ax,-0x14(%ebp)
	__asm__ __volatile__("in %1, %0" : "=a" (rv) : "dN" (port));
   12958:	0f b7 45 ec          	movzwl -0x14(%ebp),%eax
   1295c:	89 c2                	mov    %eax,%edx
   1295e:	66 ed                	in     (%dx),%ax
   12960:	66 89 45 fe          	mov    %ax,-0x2(%ebp)
	return rv;
   12964:	0f b7 45 fe          	movzwl -0x2(%ebp),%eax
}
   12968:	c9                   	leave  
   12969:	c3                   	ret    

0001296a <outb>:
static inline void outb(uint16_t port, uint8_t data) {
   1296a:	55                   	push   %ebp
   1296b:	89 e5                	mov    %esp,%ebp
   1296d:	83 ec 08             	sub    $0x8,%esp
   12970:	8b 55 08             	mov    0x8(%ebp),%edx
   12973:	8b 45 0c             	mov    0xc(%ebp),%eax
   12976:	66 89 55 fc          	mov    %dx,-0x4(%ebp)
   1297a:	88 45 f8             	mov    %al,-0x8(%ebp)
	__asm__ __volatile__("outb %[v], %[p]" : : [p]"d" (port), [v]"a" (data));
   1297d:	0f b7 55 fc          	movzwl -0x4(%ebp),%edx
   12981:	0f b6 45 f8          	movzbl -0x8(%ebp),%eax
   12985:	ee                   	out    %al,(%dx)
}
   12986:	90                   	nop
   12987:	c9                   	leave  
   12988:	c3                   	ret    

00012989 <cli>:
static inline void cli() {
   12989:	55                   	push   %ebp
   1298a:	89 e5                	mov    %esp,%ebp
	__asm__ __volatile__("cli");
   1298c:	fa                   	cli    
}
   1298d:	90                   	nop
   1298e:	5d                   	pop    %ebp
   1298f:	c3                   	ret    

00012990 <sti>:
static inline void sti() {
   12990:	55                   	push   %ebp
   12991:	89 e5                	mov    %esp,%ebp
	__asm__ __volatile__("sti");
   12993:	fb                   	sti    
}
   12994:	90                   	nop
   12995:	5d                   	pop    %ebp
   12996:	c3                   	ret    

00012997 <lidt>:
static inline void lidt(uint32_t start, uint32_t size) {
   12997:	55                   	push   %ebp
   12998:	89 e5                	mov    %esp,%ebp
   1299a:	83 ec 10             	sub    $0x10,%esp
	idt.start31_16 = start >> 16;
   1299d:	8b 45 08             	mov    0x8(%ebp),%eax
